GAS LISTING C:\Users\elias\AppData\Local\Temp\ccM4DAnB.s 			page 1


   1              		.file	"cordic-math.c"
   2              		.option nopic
   3              		.attribute arch, "rv32i2p0_m2p0_a2p0_c2p0"
   4              		.attribute unaligned_access, 0
   5              		.attribute stack_align, 16
   6              		.text
   7              	.Ltext0:
   8              		.cfi_sections	.debug_frame
   9              		.section	.text.cordic_atan,"ax",@progbits
  10              		.align	1
  11              		.globl	cordic_atan
  13              	cordic_atan:
  14              	.LFB0:
  15              		.file 1 "cordic-math.c"
   1:cordic-math.c **** #include "cordic-math.h"
   2:cordic-math.c **** 
   3:cordic-math.c **** 
   4:cordic-math.c **** #define FLOAT_TO_INT(x) ((x) >= 0 ? (int)((x) + 0.5) : (int)((x)-0.5))
   5:cordic-math.c **** 
   6:cordic-math.c **** static const uint32_t EULER = FLOAT_TO_INT(2.71828182846 * (1 << CORDIC_MATH_FRACTION_BITS));
   7:cordic-math.c **** static const uint32_t CORDIC_GAIN = FLOAT_TO_INT(0.607253 * (1 << CORDIC_MATH_FRACTION_BITS));
   8:cordic-math.c **** static const uint32_t CORDIC_GAIN_HYPERBOLIC_VECTOR = FLOAT_TO_INT(0.82816 * (1 << CORDIC_MATH_FRAC
   9:cordic-math.c **** static const uint32_t CORDIC_GAIN_HYPERBOLIC_CIRCULAR = FLOAT_TO_INT(1.64676 * (1 << CORDIC_MATH_FR
  10:cordic-math.c **** static const uint32_t DECIMAL_TO_FP = (1 << CORDIC_MATH_FRACTION_BITS);
  11:cordic-math.c **** static const uint32_t PI = FLOAT_TO_INT(3.14159265359 * (1 << CORDIC_MATH_FRACTION_BITS));
  12:cordic-math.c **** static const uint32_t ONE_EIGHTY_DIV_PI = FLOAT_TO_INT((180 / 3.14159265359) * (1 << CORDIC_MATH_FR
  13:cordic-math.c **** static const uint32_t ONE_DIV_CORDIC_GAIN_HYPERBOLIC = FLOAT_TO_INT((1.0 / 0.82816) * (1 << CORDIC_
  14:cordic-math.c **** 
  15:cordic-math.c **** static const uint32_t LUT_CORDIC_ATAN[15] =  {FLOAT_TO_INT(45.0000 * (1 << CORDIC_MATH_FRACTION_BIT
  16:cordic-math.c ****                                               FLOAT_TO_INT(26.5651 * (1 << CORDIC_MATH_FRACTION_BIT
  17:cordic-math.c ****                                               FLOAT_TO_INT(14.0362 * (1 << CORDIC_MATH_FRACTION_BIT
  18:cordic-math.c ****                                               FLOAT_TO_INT(7.1250  * (1 << CORDIC_MATH_FRACTION_BIT
  19:cordic-math.c ****                                               FLOAT_TO_INT(3.5763  * (1 << CORDIC_MATH_FRACTION_BIT
  20:cordic-math.c ****                                               FLOAT_TO_INT(1.7899  * (1 << CORDIC_MATH_FRACTION_BIT
  21:cordic-math.c ****                                               FLOAT_TO_INT(0.8952  * (1 << CORDIC_MATH_FRACTION_BIT
  22:cordic-math.c ****                                               FLOAT_TO_INT(0.4476  * (1 << CORDIC_MATH_FRACTION_BIT
  23:cordic-math.c ****                                               FLOAT_TO_INT(0.2238  * (1 << CORDIC_MATH_FRACTION_BIT
  24:cordic-math.c ****                                               FLOAT_TO_INT(0.1119  * (1 << CORDIC_MATH_FRACTION_BIT
  25:cordic-math.c ****                                               FLOAT_TO_INT(0.0560  * (1 << CORDIC_MATH_FRACTION_BIT
  26:cordic-math.c ****                                               FLOAT_TO_INT(0.0280  * (1 << CORDIC_MATH_FRACTION_BIT
  27:cordic-math.c ****                                               FLOAT_TO_INT(0.0140  * (1 << CORDIC_MATH_FRACTION_BIT
  28:cordic-math.c ****                                               FLOAT_TO_INT(0.0070  * (1 << CORDIC_MATH_FRACTION_BIT
  29:cordic-math.c ****                                               FLOAT_TO_INT(0.0035  * (1 << CORDIC_MATH_FRACTION_BIT
  30:cordic-math.c **** 
  31:cordic-math.c **** static const uint32_t LUT_CORDIC_ATANH[14] = {FLOAT_TO_INT(31.4729 * (1 << CORDIC_MATH_FRACTION_BIT
  32:cordic-math.c ****                                               FLOAT_TO_INT(14.6341 * (1 << CORDIC_MATH_FRACTION_BIT
  33:cordic-math.c ****                                               FLOAT_TO_INT(7.1996  * (1 << CORDIC_MATH_FRACTION_BIT
  34:cordic-math.c ****                                               FLOAT_TO_INT(3.5857  * (1 << CORDIC_MATH_FRACTION_BIT
  35:cordic-math.c ****                                               FLOAT_TO_INT(1.7911  * (1 << CORDIC_MATH_FRACTION_BIT
  36:cordic-math.c ****                                               FLOAT_TO_INT(0.8953  * (1 << CORDIC_MATH_FRACTION_BIT
  37:cordic-math.c ****                                               FLOAT_TO_INT(0.4476  * (1 << CORDIC_MATH_FRACTION_BIT
  38:cordic-math.c ****                                               FLOAT_TO_INT(0.2238  * (1 << CORDIC_MATH_FRACTION_BIT
  39:cordic-math.c ****                                               FLOAT_TO_INT(0.1119  * (1 << CORDIC_MATH_FRACTION_BIT
  40:cordic-math.c ****                                               FLOAT_TO_INT(0.0560  * (1 << CORDIC_MATH_FRACTION_BIT
  41:cordic-math.c ****                                               FLOAT_TO_INT(0.0280  * (1 << CORDIC_MATH_FRACTION_BIT
  42:cordic-math.c ****                                               FLOAT_TO_INT(0.0140  * (1 << CORDIC_MATH_FRACTION_BIT
  43:cordic-math.c ****                                               FLOAT_TO_INT(0.0070  * (1 << CORDIC_MATH_FRACTION_BIT
GAS LISTING C:\Users\elias\AppData\Local\Temp\ccM4DAnB.s 			page 2


  44:cordic-math.c ****                                               FLOAT_TO_INT(0.0035  * (1 << CORDIC_MATH_FRACTION_BIT
  45:cordic-math.c **** 
  46:cordic-math.c **** /*****************************************VECTORING MODE*******************************************
  47:cordic-math.c **** 
  48:cordic-math.c **** /**
  49:cordic-math.c ****  * @brief Fast fixedpoint calculation of arcustangens using the cordic algorithm
  50:cordic-math.c ****  * 
  51:cordic-math.c ****  * @param y fixedpoint according to CORDIC_MATH_FRACTION_BITS, numerator, arctan(y/x)
  52:cordic-math.c ****  * @param x fixedpoint according to CORDIC_MATH_FRACTION_BITS, denominator, arctan(y/x)
  53:cordic-math.c ****  * 
  54:cordic-math.c ****  * @return 32 bit int fixedpoint according to CORDIC_MATH_FRACTION_BITS, arctan(y/x)
  55:cordic-math.c ****  */
  56:cordic-math.c **** int32_t cordic_atan(int32_t y, int32_t x) {
  16              		.loc 1 56 43
  17              		.cfi_startproc
  18              	.LVL0:
  57:cordic-math.c ****     int sumAngle = 0, tempX;
  19              		.loc 1 57 5
  58:cordic-math.c ****     if (x < 0) {
  20              		.loc 1 58 5
  56:cordic-math.c ****     int sumAngle = 0, tempX;
  21              		.loc 1 56 43 is_stmt 0
  22 0000 2A87     		mv	a4,a0
  23              		.loc 1 58 8
  24 0002 63D60500 		bge	a1,zero,.L2
  59:cordic-math.c ****         x = -x;
  25              		.loc 1 59 9 is_stmt 1
  26              		.loc 1 59 11 is_stmt 0
  27 0006 B305B040 		neg	a1,a1
  28              	.LVL1:
  60:cordic-math.c ****         y = -y;
  29              		.loc 1 60 9 is_stmt 1
  30              		.loc 1 60 11 is_stmt 0
  31 000a 3307A040 		neg	a4,a0
  32              	.LVL2:
  33              	.L2:
  34 000e B7060000 		lui	a3,%hi(.LANCHOR0+4)
  56:cordic-math.c ****     int sumAngle = 0, tempX;
  35              		.loc 1 56 43
  36 0012 0D66     		li	a2,12288
  37 0014 93864600 		addi	a3,a3,%lo(.LANCHOR0+4)
  38 0018 130606D0 		addi	a2,a2,-768
  39 001c 8147     		li	a5,0
  40 001e 0145     		li	a0,0
  41              	.LBB26:
  61:cordic-math.c ****     }
  62:cordic-math.c ****     for (int i = 0; i < CORDIC_SPEED_FACTOR; i++) {
  42              		.loc 1 62 5
  43 0020 3D43     		li	t1,15
  44 0022 11A8     		j	.L6
  45              	.LVL3:
  46              	.L8:
  47              		.loc 1 62 47
  48 0024 8507     		addi	a5,a5,1
  49              	.LVL4:
  63:cordic-math.c ****         tempX = x;
  64:cordic-math.c ****         if (y > 0) {
GAS LISTING C:\Users\elias\AppData\Local\Temp\ccM4DAnB.s 			page 3


  65:cordic-math.c ****             /* Rotate clockwise */
  66:cordic-math.c ****             x += (y >> i);
  50              		.loc 1 66 15
  51 0026 C695     		add	a1,a1,a7
  52              	.LVL5:
  67:cordic-math.c ****             y -= (tempX >> i);
  53              		.loc 1 67 13 is_stmt 1
  54              		.loc 1 67 15 is_stmt 0
  55 0028 33070741 		sub	a4,a4,a6
  56              	.LVL6:
  68:cordic-math.c ****             sumAngle += LUT_CORDIC_ATAN[i];
  57              		.loc 1 68 13 is_stmt 1
  58              		.loc 1 68 22 is_stmt 0
  59 002c 3295     		add	a0,a0,a2
  60              	.LVL7:
  62:cordic-math.c ****         tempX = x;
  61              		.loc 1 62 5
  62 002e 63816702 		beq	a5,t1,.L1
  63              	.L9:
  64 0032 9042     		lw	a2,0(a3)
  65 0034 9106     		addi	a3,a3,4
  66              	.LVL8:
  67              	.L6:
  63:cordic-math.c ****         if (y > 0) {
  68              		.loc 1 63 9 is_stmt 1
  64:cordic-math.c ****             /* Rotate clockwise */
  69              		.loc 1 64 9
  66:cordic-math.c ****             y -= (tempX >> i);
  70              		.loc 1 66 13
  69:cordic-math.c ****         } else {
  70:cordic-math.c ****             /* Rotate counterclockwise */
  71:cordic-math.c ****             x -= (y >> i);
  71              		.loc 1 71 13
  72 0036 B358F740 		sra	a7,a4,a5
  73 003a 33D8F540 		sra	a6,a1,a5
  64:cordic-math.c ****             /* Rotate clockwise */
  74              		.loc 1 64 12 is_stmt 0
  75 003e E343E0FE 		bgt	a4,zero,.L8
  62:cordic-math.c ****         tempX = x;
  76              		.loc 1 62 47
  77 0042 8507     		addi	a5,a5,1
  78              	.LVL9:
  72:cordic-math.c ****             y += (tempX >> i);
  73:cordic-math.c ****             sumAngle -= LUT_CORDIC_ATAN[i];
  79              		.loc 1 73 22
  80 0044 118D     		sub	a0,a0,a2
  81              	.LVL10:
  71:cordic-math.c ****             y += (tempX >> i);
  82              		.loc 1 71 15
  83 0046 B3851541 		sub	a1,a1,a7
  84              	.LVL11:
  72:cordic-math.c ****             y += (tempX >> i);
  85              		.loc 1 72 13 is_stmt 1
  72:cordic-math.c ****             y += (tempX >> i);
  86              		.loc 1 72 15 is_stmt 0
  87 004a 4297     		add	a4,a4,a6
  88              	.LVL12:
GAS LISTING C:\Users\elias\AppData\Local\Temp\ccM4DAnB.s 			page 4


  89              		.loc 1 73 13 is_stmt 1
  62:cordic-math.c ****         tempX = x;
  90              		.loc 1 62 5 is_stmt 0
  91 004c E39367FE 		bne	a5,t1,.L9
  92              	.L1:
  93              	.LBE26:
  74:cordic-math.c ****         }
  75:cordic-math.c ****     }
  76:cordic-math.c ****     return sumAngle;
  77:cordic-math.c **** }
  94              		.loc 1 77 1
  95 0050 8280     		ret
  96              		.cfi_endproc
  97              	.LFE0:
  99              		.section	.text.cordic_hypotenuse,"ax",@progbits
 100              		.align	1
 101              		.globl	cordic_hypotenuse
 103              	cordic_hypotenuse:
 104              	.LFB1:
  78:cordic-math.c **** 
  79:cordic-math.c **** /**
  80:cordic-math.c ****  * @brief fast fixedpoints calculation of hypotenuse using the cordic
  81:cordic-math.c ****  * algorithm
  82:cordic-math.c ****  *
  83:cordic-math.c ****  * @param y fixedpoint according to CORDIC_MATH_FRACTION_BITS 
  84:cordic-math.c ****  * @param x fixedpoint according to CORDIC_MATH_FRACTION_BITS
  85:cordic-math.c ****  *
  86:cordic-math.c ****  * @return 32 bit int fixedpoint according to CORDIC_MATH_FRACTION_BITS, sqrt( x*x + y*y )
  87:cordic-math.c ****  */
  88:cordic-math.c **** int32_t cordic_hypotenuse(int32_t y, int32_t x) {
 105              		.loc 1 88 49 is_stmt 1
 106              		.cfi_startproc
 107              	.LVL13:
  89:cordic-math.c ****     int tempX;
 108              		.loc 1 89 5
  90:cordic-math.c ****     x = cordic_abs(x);
 109              		.loc 1 90 5
  91:cordic-math.c ****     y = cordic_abs(y);
  92:cordic-math.c **** 
  93:cordic-math.c ****     for (int i = 0; i < CORDIC_SPEED_FACTOR; i++) {
  94:cordic-math.c ****         tempX = x;
  95:cordic-math.c ****         if (y > 0) {
  96:cordic-math.c ****             /* Rotate clockwise */
  97:cordic-math.c ****             x += (y >> i);
  98:cordic-math.c ****             y -= (tempX >> i);
  99:cordic-math.c ****         } else {
 100:cordic-math.c ****             /* Rotate counterclockwise */
 101:cordic-math.c ****             x -= (y >> i);
 102:cordic-math.c ****             y += (tempX >> i);
 103:cordic-math.c ****         }
 104:cordic-math.c ****     }
 105:cordic-math.c **** 
 106:cordic-math.c ****     return ((long)x * CORDIC_GAIN) >> CORDIC_MATH_FRACTION_BITS;
 107:cordic-math.c **** }
 108:cordic-math.c **** 
 109:cordic-math.c **** /**
 110:cordic-math.c ****  * @brief Fast fixedpoint cossinus using the cordic algorithm
GAS LISTING C:\Users\elias\AppData\Local\Temp\ccM4DAnB.s 			page 5


 111:cordic-math.c ****  *
 112:cordic-math.c ****  * @param theta, cos(theta), theta = fixedpoint according to CORDIC_MATH_FRACTION_BITS in degrees
 113:cordic-math.c ****  *
 114:cordic-math.c ****  * @return 32 bit int, cos of theta, fixedpoint according to CORDIC_MATH_FRACTION_BITS
 115:cordic-math.c ****  */
 116:cordic-math.c **** int32_t cordic_cos(int32_t theta) {
 117:cordic-math.c ****     int x = CORDIC_GAIN, y = 0, sumAngle = 0, tempX;
 118:cordic-math.c **** 
 119:cordic-math.c ****     theta %= (360 << CORDIC_MATH_FRACTION_BITS);
 120:cordic-math.c **** 
 121:cordic-math.c ****     if (theta > (90 << CORDIC_MATH_FRACTION_BITS)) {
 122:cordic-math.c ****         sumAngle = 180 << CORDIC_MATH_FRACTION_BITS;
 123:cordic-math.c ****     }
 124:cordic-math.c ****     if (theta > (270 << CORDIC_MATH_FRACTION_BITS)) {
 125:cordic-math.c ****         sumAngle = 360 << CORDIC_MATH_FRACTION_BITS;
 126:cordic-math.c ****     }
 127:cordic-math.c **** 
 128:cordic-math.c ****     for (int i = 0; i < CORDIC_SPEED_FACTOR; i++) {
 129:cordic-math.c ****         tempX = x;
 130:cordic-math.c ****         if (theta > sumAngle) {
 131:cordic-math.c ****             /* Rotate counter clockwise */
 132:cordic-math.c ****             x -= (y >> i);
 133:cordic-math.c ****             y += (tempX >> i);
 134:cordic-math.c ****             sumAngle += LUT_CORDIC_ATAN[i];
 135:cordic-math.c ****         } else {
 136:cordic-math.c ****             /* Rotate clockwise */
 137:cordic-math.c ****             x += (y >> i);
 138:cordic-math.c ****             y -= (tempX >> i);
 139:cordic-math.c ****             sumAngle -= LUT_CORDIC_ATAN[i];
 140:cordic-math.c ****         }
 141:cordic-math.c ****     }
 142:cordic-math.c ****     if (theta > (90 << CORDIC_MATH_FRACTION_BITS) &&
 143:cordic-math.c ****         theta < (270 << CORDIC_MATH_FRACTION_BITS)) {
 144:cordic-math.c ****         x = -x;
 145:cordic-math.c ****     }
 146:cordic-math.c ****     return x;
 147:cordic-math.c **** }
 148:cordic-math.c **** 
 149:cordic-math.c **** /**
 150:cordic-math.c ****  * @brief Fast fixedpoint sinus using the cordic algorithm
 151:cordic-math.c ****  *
 152:cordic-math.c ****  * @param theta, sin(theta), theta = fixedpoint according to CORDIC_MATH_FRACTION_BITS in degrees
 153:cordic-math.c ****  *
 154:cordic-math.c ****  * @return 32 bit int, sin of theta, fixedpoint according to CORDIC_MATH_FRACTION_BITS
 155:cordic-math.c ****  */
 156:cordic-math.c **** int32_t cordic_sin(int32_t theta) {
 157:cordic-math.c ****     int x = CORDIC_GAIN, y = 0, sumAngle = 0, tempX;
 158:cordic-math.c **** 
 159:cordic-math.c ****     theta %= (360 << CORDIC_MATH_FRACTION_BITS);
 160:cordic-math.c **** 
 161:cordic-math.c ****     if (theta > (90 << CORDIC_MATH_FRACTION_BITS)) {
 162:cordic-math.c ****         sumAngle = 180 << CORDIC_MATH_FRACTION_BITS;
 163:cordic-math.c ****     }
 164:cordic-math.c ****     if (theta > (270 << CORDIC_MATH_FRACTION_BITS)) {
 165:cordic-math.c ****         sumAngle = 360 << CORDIC_MATH_FRACTION_BITS;
 166:cordic-math.c ****     }
 167:cordic-math.c **** 
GAS LISTING C:\Users\elias\AppData\Local\Temp\ccM4DAnB.s 			page 6


 168:cordic-math.c ****     for (int i = 0; i < CORDIC_SPEED_FACTOR; i++) {
 169:cordic-math.c ****         tempX = x;
 170:cordic-math.c ****         if (theta > sumAngle) {
 171:cordic-math.c ****             /* Rotate counter clockwise */
 172:cordic-math.c ****             x -= (y >> i);
 173:cordic-math.c ****             y += (tempX >> i);
 174:cordic-math.c ****             sumAngle += LUT_CORDIC_ATAN[i];
 175:cordic-math.c ****         } else {
 176:cordic-math.c ****             /* Rotate clockwise */
 177:cordic-math.c ****             x += (y >> i);
 178:cordic-math.c ****             y -= (tempX >> i);
 179:cordic-math.c ****             sumAngle -= LUT_CORDIC_ATAN[i];
 180:cordic-math.c ****         }
 181:cordic-math.c ****     }
 182:cordic-math.c **** 
 183:cordic-math.c ****     if (theta > (90 << CORDIC_MATH_FRACTION_BITS) &&
 184:cordic-math.c ****         theta < (270 << CORDIC_MATH_FRACTION_BITS)) {
 185:cordic-math.c ****         y = -y;
 186:cordic-math.c ****     }
 187:cordic-math.c **** 
 188:cordic-math.c ****     return y;
 189:cordic-math.c **** }
 190:cordic-math.c **** 
 191:cordic-math.c **** /**
 192:cordic-math.c ****  * @brief Fast fixedpoint arccosinus using the cordic algorithm
 193:cordic-math.c ****  *
 194:cordic-math.c ****  * @param yInput, arcsin(xInput), xInput = fixedpoint according to CORDIC_MATH_FRACTION_BITS
 195:cordic-math.c ****  *
 196:cordic-math.c ****  * @return 32 bit int, arcsin of yInput, fixedpoint according to CORDIC_MATH_FRACTION_BITS
 197:cordic-math.c ****  */
 198:cordic-math.c **** int32_t cordic_asin(int32_t input) {
 199:cordic-math.c ****     int x = CORDIC_GAIN, y = 0, sumAngle = 0, tempX,
 200:cordic-math.c ****         ninety = (90 << CORDIC_MATH_FRACTION_BITS);
 201:cordic-math.c **** 
 202:cordic-math.c ****     for (int i = 0; i < CORDIC_SPEED_FACTOR; i++) {
 203:cordic-math.c ****         tempX = x;
 204:cordic-math.c ****         if (y < input) {
 205:cordic-math.c ****             /* Rotate counter clockwise */
 206:cordic-math.c ****             x -= (y >> i);
 207:cordic-math.c ****             y += (tempX >> i);
 208:cordic-math.c ****             sumAngle += LUT_CORDIC_ATAN[i];
 209:cordic-math.c ****         } else {
 210:cordic-math.c ****             /* Rotate clockwise */
 211:cordic-math.c ****             x += (y >> i);
 212:cordic-math.c ****             y -= (tempX >> i);
 213:cordic-math.c ****             sumAngle -= LUT_CORDIC_ATAN[i];
 214:cordic-math.c ****         }
 215:cordic-math.c ****     }
 216:cordic-math.c ****     if (sumAngle < -ninety) {
 217:cordic-math.c ****         sumAngle = -ninety;
 218:cordic-math.c ****     } else if (sumAngle > ninety) {
 219:cordic-math.c ****         sumAngle = ninety;
 220:cordic-math.c ****     }
 221:cordic-math.c ****     return sumAngle;
 222:cordic-math.c **** }
 223:cordic-math.c **** 
 224:cordic-math.c **** /**
GAS LISTING C:\Users\elias\AppData\Local\Temp\ccM4DAnB.s 			page 7


 225:cordic-math.c ****  * @brief Fast fixedpoint arccosinus using the cordic algorithm
 226:cordic-math.c ****  *
 227:cordic-math.c ****  * @param xInput, arccos(xInput), xInput = fixedpoint according to CORDIC_MATH_FRACTION_BITS
 228:cordic-math.c ****  *
 229:cordic-math.c ****  * @return 32 bit int, arccos of xInput, fixedpoint according to CORDIC_MATH_FRACTION_BITS
 230:cordic-math.c ****  */
 231:cordic-math.c **** int32_t cordic_acos(int32_t xInput) {
 232:cordic-math.c ****     int x = 0, y = CORDIC_GAIN, sumAngle = 90 << CORDIC_MATH_FRACTION_BITS,
 233:cordic-math.c ****         tempX;
 234:cordic-math.c **** 
 235:cordic-math.c ****     for (int i = 0; i < CORDIC_SPEED_FACTOR; i++) {
 236:cordic-math.c ****         tempX = x;
 237:cordic-math.c ****         if (x > xInput) {
 238:cordic-math.c ****             /* Rotate counter clockwise */
 239:cordic-math.c ****             x -= (y >> i);
 240:cordic-math.c ****             y += (tempX >> i);
 241:cordic-math.c ****             sumAngle += LUT_CORDIC_ATAN[i];
 242:cordic-math.c ****         } else {
 243:cordic-math.c ****             /* Rotate clockwise */
 244:cordic-math.c ****             x += (y >> i);
 245:cordic-math.c ****             y -= (tempX >> i);
 246:cordic-math.c ****             sumAngle -= LUT_CORDIC_ATAN[i];
 247:cordic-math.c ****         }
 248:cordic-math.c ****     }
 249:cordic-math.c ****     if (sumAngle > 180 * DECIMAL_TO_FP) {
 250:cordic-math.c ****         sumAngle = 180 * DECIMAL_TO_FP;
 251:cordic-math.c ****     } else if (sumAngle < 0) {
 252:cordic-math.c ****         sumAngle = 0;
 253:cordic-math.c ****     }
 254:cordic-math.c ****     return sumAngle;
 255:cordic-math.c **** }
 256:cordic-math.c **** 
 257:cordic-math.c **** /**
 258:cordic-math.c ****  * @brief Fast fixedpoint tan using the cordic algorithm
 259:cordic-math.c ****  *
 260:cordic-math.c ****  * @param theta, tan(degree), degree = fixedpoint according to CORDIC_MATH_FRACTION_BITS in degrees
 261:cordic-math.c ****  *
 262:cordic-math.c ****  * @return 32 bit int, tan of degree, fixedpoint according to CORDIC_MATH_FRACTION_BITS
 263:cordic-math.c ****  */
 264:cordic-math.c **** int32_t cordic_tan(int32_t theta) {
 265:cordic-math.c ****         int x = CORDIC_GAIN, y = 0, sumAngle = 0, tempX;
 266:cordic-math.c **** 
 267:cordic-math.c ****     theta %= (360 << CORDIC_MATH_FRACTION_BITS);
 268:cordic-math.c **** 
 269:cordic-math.c ****     if (theta > (90 << CORDIC_MATH_FRACTION_BITS)) {
 270:cordic-math.c ****         sumAngle = 180 << CORDIC_MATH_FRACTION_BITS;
 271:cordic-math.c ****     }
 272:cordic-math.c ****     if (theta > (270 << CORDIC_MATH_FRACTION_BITS)) {
 273:cordic-math.c ****         sumAngle = 360 << CORDIC_MATH_FRACTION_BITS;
 274:cordic-math.c ****     }
 275:cordic-math.c **** 
 276:cordic-math.c ****     for (int i = 0; i < CORDIC_SPEED_FACTOR; i++) {
 277:cordic-math.c ****         tempX = x;
 278:cordic-math.c ****         if (theta > sumAngle) {
 279:cordic-math.c ****             /* Rotate counter clockwise */
 280:cordic-math.c ****             x -= (y >> i);
 281:cordic-math.c ****             y += (tempX >> i);
GAS LISTING C:\Users\elias\AppData\Local\Temp\ccM4DAnB.s 			page 8


 282:cordic-math.c ****             sumAngle += LUT_CORDIC_ATAN[i];
 283:cordic-math.c ****         } else {
 284:cordic-math.c ****             /* Rotate clockwise */
 285:cordic-math.c ****             x += (y >> i);
 286:cordic-math.c ****             y -= (tempX >> i);
 287:cordic-math.c ****             sumAngle -= LUT_CORDIC_ATAN[i];
 288:cordic-math.c ****         }
 289:cordic-math.c **** 
 290:cordic-math.c ****     }
 291:cordic-math.c **** 
 292:cordic-math.c ****     if (theta > (90 << CORDIC_MATH_FRACTION_BITS) &&
 293:cordic-math.c ****         theta < (270 << CORDIC_MATH_FRACTION_BITS)) {
 294:cordic-math.c ****         x = -x;    
 295:cordic-math.c ****         y = -y;
 296:cordic-math.c ****     }
 297:cordic-math.c **** 
 298:cordic-math.c ****     return (y << CORDIC_MATH_FRACTION_BITS) / x;
 299:cordic-math.c **** }
 300:cordic-math.c **** 
 301:cordic-math.c **** /**
 302:cordic-math.c ****  * @brief Fast fixedpoint rectangular to polar conversion using the cordic algorithm
 303:cordic-math.c ****  * 
 304:cordic-math.c ****  * @param input, Coordinate struct pointer, x and y = fixedpoint coordinates according to CORDIC_MA
 305:cordic-math.c ****  * 
 306:cordic-math.c ****  * @return 0, but struct r and theta will be the coordinates in polar form
 307:cordic-math.c ****  */
 308:cordic-math.c **** int32_t cordic_rectangular_polar(Coordinates *input) {
 309:cordic-math.c ****     int tempX, sumAngle = 0, x = input->x, y = input->y;
 310:cordic-math.c ****     if (x < 0 && y >= 0) {
 311:cordic-math.c ****         sumAngle = 90 * (1 << CORDIC_MATH_FRACTION_BITS);
 312:cordic-math.c ****         x = cordic_abs(x);
 313:cordic-math.c ****     } else if (x < 0 && y < 0) {
 314:cordic-math.c ****         sumAngle = 180 * (1 << CORDIC_MATH_FRACTION_BITS);
 315:cordic-math.c ****         x = cordic_abs(x);
 316:cordic-math.c ****         y = cordic_abs(y);
 317:cordic-math.c ****     }
 318:cordic-math.c **** 
 319:cordic-math.c ****     for (int i = 0; i < 15; i++) {
 320:cordic-math.c ****         tempX = x;
 321:cordic-math.c ****         if (y > 0) {
 322:cordic-math.c ****             /* Rotate clockwise */
 323:cordic-math.c ****             x += (y >> i);
 324:cordic-math.c ****             y -= (tempX >> i);
 325:cordic-math.c ****             sumAngle += LUT_CORDIC_ATAN[i];
 326:cordic-math.c ****         } else {
 327:cordic-math.c ****             /* Rotate counterclockwise */
 328:cordic-math.c ****             x -= (y >> i);
 329:cordic-math.c ****             y += (tempX >> i);
 330:cordic-math.c ****             sumAngle -= LUT_CORDIC_ATAN[i];
 331:cordic-math.c ****         }
 332:cordic-math.c ****     }
 333:cordic-math.c ****     input->theta = sumAngle;
 334:cordic-math.c ****     input->r = ((long)x * CORDIC_GAIN) >> CORDIC_MATH_FRACTION_BITS;
 335:cordic-math.c ****     return 0;
 336:cordic-math.c **** }
 337:cordic-math.c **** 
 338:cordic-math.c **** /**
GAS LISTING C:\Users\elias\AppData\Local\Temp\ccM4DAnB.s 			page 9


 339:cordic-math.c ****  * @brief Fast fixedpoint polar to rectangular conversion using the cordic algorithm
 340:cordic-math.c ****  * 
 341:cordic-math.c ****  * @param input, Coordinate struct pointer, r and theta = fixedpoint coordinates according to CORDI
 342:cordic-math.c ****  *  
 343:cordic-math.c ****  * @return 0, but struct x and y will be the coordinates in rectangular form
 344:cordic-math.c ****  */
 345:cordic-math.c **** int32_t cordic_polar_rectangular(Coordinates *input) {
 346:cordic-math.c ****     int tempX, sumAngle = 0, x = CORDIC_GAIN, y = 0;
 347:cordic-math.c **** 
 348:cordic-math.c ****     input->theta %= (360 << CORDIC_MATH_FRACTION_BITS);
 349:cordic-math.c **** 
 350:cordic-math.c ****     if (input->theta > (90 * (1 << CORDIC_MATH_FRACTION_BITS)) &&
 351:cordic-math.c ****         input->theta < (270 * (1 << CORDIC_MATH_FRACTION_BITS))) {
 352:cordic-math.c **** 
 353:cordic-math.c ****         sumAngle = 180 * (1 << CORDIC_MATH_FRACTION_BITS);
 354:cordic-math.c ****         x = -x;
 355:cordic-math.c ****     }
 356:cordic-math.c ****     for (int i = 0; i < 15; i++) {
 357:cordic-math.c ****         tempX = x;
 358:cordic-math.c ****         if (input->theta > sumAngle) {
 359:cordic-math.c ****             /* Rotate counter clockwise */
 360:cordic-math.c ****             x -= (y >> i);
 361:cordic-math.c ****             y += (tempX >> i);
 362:cordic-math.c ****             sumAngle += LUT_CORDIC_ATAN[i];
 363:cordic-math.c ****         } else {
 364:cordic-math.c ****             /* Rotate clockwise */
 365:cordic-math.c ****             x += (y >> i);
 366:cordic-math.c ****             y -= (tempX >> i);
 367:cordic-math.c ****             sumAngle -= LUT_CORDIC_ATAN[i];
 368:cordic-math.c ****         }
 369:cordic-math.c ****     }
 370:cordic-math.c ****     input->x = ((long)x * input->r) >> CORDIC_MATH_FRACTION_BITS;
 371:cordic-math.c ****     input->y = ((long)y * input->r) >> CORDIC_MATH_FRACTION_BITS;
 372:cordic-math.c ****     return 0;
 373:cordic-math.c **** }
 374:cordic-math.c **** 
 375:cordic-math.c **** /*****************************************HYPERBOLIC MODE******************************************
 376:cordic-math.c **** 
 377:cordic-math.c **** /**
 378:cordic-math.c ****  * @brief Fast fixedpoint calculation of squareroot using the cordic
 379:cordic-math.c ****  * algorithm
 380:cordic-math.c ****  *
 381:cordic-math.c ****  * @param x, sqrt(x), x = fixedpoint according to CORDIC_MATH_FRACTION_BITS
 382:cordic-math.c ****  *
 383:cordic-math.c ****  * @return 32 bit int, squareroot of x, fixedpoint according to CORDIC_MATH_FRACTION_BITS
 384:cordic-math.c ****  */
 385:cordic-math.c **** int32_t cordic_sqrt(int32_t x) {
 386:cordic-math.c ****     int poweroftwo;
 387:cordic-math.c ****     int y;
 388:cordic-math.c **** 
 389:cordic-math.c ****     if (x == 0) {
 390:cordic-math.c ****         return 0;
 391:cordic-math.c ****     }
 392:cordic-math.c ****     if (x == DECIMAL_TO_FP) {
 393:cordic-math.c ****         return DECIMAL_TO_FP;
 394:cordic-math.c ****     }
 395:cordic-math.c ****     poweroftwo = DECIMAL_TO_FP;
GAS LISTING C:\Users\elias\AppData\Local\Temp\ccM4DAnB.s 			page 10


 396:cordic-math.c **** 
 397:cordic-math.c ****     if (x < DECIMAL_TO_FP) {
 398:cordic-math.c ****         while (x <=
 399:cordic-math.c ****                (((long)poweroftwo * poweroftwo) >> CORDIC_MATH_FRACTION_BITS)) {
 400:cordic-math.c ****             poweroftwo >>= 1;
 401:cordic-math.c ****         }
 402:cordic-math.c ****         y = poweroftwo;
 403:cordic-math.c ****     } else if (x > DECIMAL_TO_FP) {
 404:cordic-math.c ****         while ((((long)poweroftwo * poweroftwo) >> CORDIC_MATH_FRACTION_BITS) <=
 405:cordic-math.c ****                x) {
 406:cordic-math.c ****             poweroftwo <<= 1;
 407:cordic-math.c ****         }
 408:cordic-math.c ****         y = poweroftwo >> 1;
 409:cordic-math.c ****     }
 410:cordic-math.c ****     for (int i = 1; i <= CORDIC_SPEED_FACTOR; i++) {
 411:cordic-math.c ****         poweroftwo >>= 1;
 412:cordic-math.c ****         if (((long)(y + poweroftwo) * (y + poweroftwo) >>
 413:cordic-math.c ****              CORDIC_MATH_FRACTION_BITS) <= x) {
 414:cordic-math.c ****             y = y + poweroftwo;
 415:cordic-math.c ****         }
 416:cordic-math.c ****     }
 417:cordic-math.c ****     return y;
 418:cordic-math.c **** }
 419:cordic-math.c **** 
 420:cordic-math.c **** /**
 421:cordic-math.c ****  * @brief Fast fixedpoint calculation of arcustangens hyperbolic using
 422:cordic-math.c ****  * the cordic algorithm
 423:cordic-math.c ****  *
 424:cordic-math.c ****  * @param y fixedpoint according to CORDIC_MATH_FRACTION_BITS, numerator, arctanh(y/x)
 425:cordic-math.c ****  * @param x fixedpoint according to CORDIC_MATH_FRACTION_BITS, denominator, arctanh(y/x)
 426:cordic-math.c ****  * 
 427:cordic-math.c ****  * @return 32 bit int fixedpoint according to CORDIC_MATH_FRACTION_BITS, arctanh(y/x)
 428:cordic-math.c ****  */
 429:cordic-math.c **** int32_t cordic_arctanh(int32_t y, int32_t x) {
 430:cordic-math.c ****     int tempX, k = 4, sumAngle = 0;
 431:cordic-math.c **** 
 432:cordic-math.c ****     for (int i = 1; i < CORDIC_SPEED_FACTOR; i++) {
 433:cordic-math.c ****         tempX = x;
 434:cordic-math.c ****         if (y < 0) {
 435:cordic-math.c ****             /* Rotate clockwise */
 436:cordic-math.c ****             x += (y >> i);
 437:cordic-math.c ****             y += (tempX >> i);
 438:cordic-math.c ****             sumAngle -= LUT_CORDIC_ATANH[i - 1];
 439:cordic-math.c ****         } else {
 440:cordic-math.c ****             /* Rotate counterclockwise */
 441:cordic-math.c ****             x -= (y >> i);
 442:cordic-math.c ****             y -= (tempX >> i);
 443:cordic-math.c ****             sumAngle += LUT_CORDIC_ATANH[i - 1];
 444:cordic-math.c ****         }
 445:cordic-math.c ****         if (i == k) {
 446:cordic-math.c ****             k = (3 * k) + 1;
 447:cordic-math.c ****             tempX = x;
 448:cordic-math.c ****             if (y < 0) {
 449:cordic-math.c ****                 /* Rotate clockwise */
 450:cordic-math.c ****                 x += (y >> i);
 451:cordic-math.c ****                 y += (tempX >> i);
 452:cordic-math.c ****                 sumAngle -= LUT_CORDIC_ATANH[i - 1];
GAS LISTING C:\Users\elias\AppData\Local\Temp\ccM4DAnB.s 			page 11


 453:cordic-math.c ****             } else {
 454:cordic-math.c ****                 /* Rotate counterclockwise */
 455:cordic-math.c ****                 x -= (y >> i);
 456:cordic-math.c ****                 y -= (tempX >> i);
 457:cordic-math.c ****                 sumAngle += LUT_CORDIC_ATANH[i - 1];
 458:cordic-math.c ****             }
 459:cordic-math.c ****         }
 460:cordic-math.c ****     }
 461:cordic-math.c ****     return sumAngle;
 462:cordic-math.c **** }
 463:cordic-math.c **** 
 464:cordic-math.c **** /**
 465:cordic-math.c ****  * @brief Fast fixedpoint calculation of natural logarithm using the
 466:cordic-math.c ****  * cordic algorithm
 467:cordic-math.c ****  *
 468:cordic-math.c ****  * @param input fixedpoint according to CORDIC_MATH_FRACTION_BITS, ln(input)
 469:cordic-math.c ****  *
 470:cordic-math.c ****  * @return 32 bit int fixedpoint according to CORDIC_MATH_FRACTION_BITS, ln(input)
 471:cordic-math.c ****  */
 472:cordic-math.c **** int32_t cordic_ln(int32_t input) {
 473:cordic-math.c ****     int k = 0;
 474:cordic-math.c ****     long calculate = input;
 475:cordic-math.c **** 
 476:cordic-math.c ****     while (calculate > EULER) {
 477:cordic-math.c ****         calculate <<= CORDIC_MATH_FRACTION_BITS;
 478:cordic-math.c ****         // printf("calculate : %ld\n", calculate);
 479:cordic-math.c ****         calculate /= EULER;
 480:cordic-math.c ****         k += DECIMAL_TO_FP;
 481:cordic-math.c ****     }
 482:cordic-math.c **** 
 483:cordic-math.c ****     int y = calculate - DECIMAL_TO_FP;
 484:cordic-math.c ****     int x = calculate + DECIMAL_TO_FP;
 485:cordic-math.c **** 
 486:cordic-math.c ****     return (to_radians(cordic_arctanh(y, x) << 1) + k);
 487:cordic-math.c **** }
 488:cordic-math.c **** 
 489:cordic-math.c **** /**
 490:cordic-math.c ****  * @brief Fast fixedpoint calculation of arccosinus hyperbollic using the
 491:cordic-math.c ****  * cordic algorithm
 492:cordic-math.c ****  *
 493:cordic-math.c ****  * @param x fixedpoint according to CORDIC_MATH_FRACTION_BITS, arccosh(x)
 494:cordic-math.c ****  *
 495:cordic-math.c ****  * @return 32 bit int fixedpoint according to CORDIC_MATH_FRACTION_BITS, arccosinus-hyperbollic(x)
 496:cordic-math.c ****  */
 497:cordic-math.c **** int32_t cordic_arccosh(int32_t x) {
 498:cordic-math.c ****     int tempX, k = 4, sumAngle = 0, y = DECIMAL_TO_FP, xt = x;
 499:cordic-math.c **** 
 500:cordic-math.c ****     for (int i = 1; i < CORDIC_SPEED_FACTOR; i++) {
 501:cordic-math.c ****         tempX = x;
 502:cordic-math.c ****         if (y < 0) {
 503:cordic-math.c ****             /* Rotate clockwise */
 504:cordic-math.c ****             x += (y >> i);
 505:cordic-math.c ****             y += (tempX >> i);
 506:cordic-math.c ****             sumAngle -= LUT_CORDIC_ATANH[i - 1];
 507:cordic-math.c ****         } else {
 508:cordic-math.c ****             /* Rotate counterclockwise */
 509:cordic-math.c ****             x -= (y >> i);
GAS LISTING C:\Users\elias\AppData\Local\Temp\ccM4DAnB.s 			page 12


 510:cordic-math.c ****             y -= (tempX >> i);
 511:cordic-math.c ****             sumAngle += LUT_CORDIC_ATANH[i - 1];
 512:cordic-math.c ****         }
 513:cordic-math.c ****         if (i == k) {
 514:cordic-math.c ****             k = (3 * k) + 1;
 515:cordic-math.c ****             tempX = x;
 516:cordic-math.c ****             if (y < 0) {
 517:cordic-math.c ****                 /* Rotate clockwise */
 518:cordic-math.c ****                 x += (y >> i);
 519:cordic-math.c ****                 y += (tempX >> i);
 520:cordic-math.c ****                 sumAngle -= LUT_CORDIC_ATANH[i - 1];
 521:cordic-math.c ****             } else {
 522:cordic-math.c ****                 /* Rotate counterclockwise */
 523:cordic-math.c ****                 x -= (y >> i);
 524:cordic-math.c ****                 y -= (tempX >> i);
 525:cordic-math.c ****                 sumAngle += LUT_CORDIC_ATANH[i - 1];
 526:cordic-math.c ****             }
 527:cordic-math.c ****         }
 528:cordic-math.c ****     }
 529:cordic-math.c **** 
 530:cordic-math.c ****     return to_degree(cordic_ln((((long)x << CORDIC_MATH_FRACTION_BITS) /
 531:cordic-math.c ****                                 CORDIC_GAIN_HYPERBOLIC_VECTOR) +
 532:cordic-math.c ****                                xt));
 533:cordic-math.c **** }
 534:cordic-math.c **** 
 535:cordic-math.c **** /**
 536:cordic-math.c ****  * @brief Fast fixedpoint calculation of arcsinus hyperbollic using the
 537:cordic-math.c ****  * cordic algorithm
 538:cordic-math.c ****  *
 539:cordic-math.c ****  * @param y fixedpoint according to CORDIC_MATH_FRACTION_BITS, arcsinh(y)
 540:cordic-math.c ****  *
 541:cordic-math.c ****  * @return 32 bit int fixedpoint according to CORDIC_MATH_FRACTION_BITS, arcsinus-hyperbollic(y)
 542:cordic-math.c ****  */
 543:cordic-math.c **** int32_t cordic_arcsinh(int32_t y) {
 544:cordic-math.c ****     int tempX, k = 4, sumAngle = 0, x = DECIMAL_TO_FP, yt = y;
 545:cordic-math.c **** 
 546:cordic-math.c ****     for (int i = 0; i < CORDIC_SPEED_FACTOR; i++) {
 547:cordic-math.c ****         tempX = x;
 548:cordic-math.c ****         if (y < 0) {
 549:cordic-math.c ****             /* Rotate clockwise */
 550:cordic-math.c ****             x -= (y >> i);
 551:cordic-math.c ****             y += (tempX >> i);
 552:cordic-math.c ****             sumAngle -= LUT_CORDIC_ATAN[i];
 553:cordic-math.c ****         } else {
 554:cordic-math.c ****             /* Rotate counterclockwise */
 555:cordic-math.c ****             x += (y >> i);
 556:cordic-math.c ****             y -= (tempX >> i);
 557:cordic-math.c ****             sumAngle += LUT_CORDIC_ATAN[i];
 558:cordic-math.c ****         }
 559:cordic-math.c ****     }
 560:cordic-math.c **** 
 561:cordic-math.c ****     return to_degree(cordic_ln((((long)x << CORDIC_MATH_FRACTION_BITS) /
 562:cordic-math.c ****                                 CORDIC_GAIN_HYPERBOLIC_CIRCULAR) +
 563:cordic-math.c ****                                yt));
 564:cordic-math.c **** }
 565:cordic-math.c **** 
 566:cordic-math.c **** /**
GAS LISTING C:\Users\elias\AppData\Local\Temp\ccM4DAnB.s 			page 13


 567:cordic-math.c ****  * @brief Fast fixedpoint calculation of sinus hyperbollic using the
 568:cordic-math.c ****  * cordic algorithm
 569:cordic-math.c ****  *
 570:cordic-math.c ****  * @param theta Fixedpoint according to CORDIC_MATH_FRACTION_BITS in degrees, arcsinh(theta)
 571:cordic-math.c ****  *
 572:cordic-math.c ****  * @return 32 bit int fixedpoint according to CORDIC_MATH_FRACTION_BITS, sinus-hyperbollic(theta)
 573:cordic-math.c ****  */
 574:cordic-math.c **** int32_t cordic_sinh(int32_t theta) {
 575:cordic-math.c ****     int tempX, k = 4, sumAngle = theta, y = 0,
 576:cordic-math.c ****                x = ONE_DIV_CORDIC_GAIN_HYPERBOLIC;
 577:cordic-math.c ****     for (int i = 1; i < CORDIC_SPEED_FACTOR; i++) {
 578:cordic-math.c ****         tempX = x;
 579:cordic-math.c ****         if (sumAngle > 0) {
 580:cordic-math.c ****             /* Rotate clockwise */
 581:cordic-math.c ****             x += (y >> i);
 582:cordic-math.c ****             y += (tempX >> i);
 583:cordic-math.c ****             sumAngle -= LUT_CORDIC_ATANH[i - 1];
 584:cordic-math.c ****         } else {
 585:cordic-math.c ****             /* Rotate counterclockwise */
 586:cordic-math.c ****             x -= (y >> i);
 587:cordic-math.c ****             y -= (tempX >> i);
 588:cordic-math.c ****             sumAngle += LUT_CORDIC_ATANH[i - 1];
 589:cordic-math.c ****         }
 590:cordic-math.c ****         if (i == k) {
 591:cordic-math.c ****             k = (3 * k) + 1;
 592:cordic-math.c ****             tempX = x;
 593:cordic-math.c ****             if (sumAngle > 0) {
 594:cordic-math.c ****                 /* Rotate clockwise */
 595:cordic-math.c ****                 x += (y >> i);
 596:cordic-math.c ****                 y += (tempX >> i);
 597:cordic-math.c ****                 sumAngle -= LUT_CORDIC_ATANH[i - 1];
 598:cordic-math.c ****             } else {
 599:cordic-math.c ****                 /* Rotate counterclockwise */
 600:cordic-math.c ****                 x -= (y >> i);
 601:cordic-math.c ****                 y -= (tempX >> i);
 602:cordic-math.c ****                 sumAngle += LUT_CORDIC_ATANH[i - 1];
 603:cordic-math.c ****             }
 604:cordic-math.c ****         }
 605:cordic-math.c ****     }
 606:cordic-math.c ****     return y;
 607:cordic-math.c **** }
 608:cordic-math.c **** 
 609:cordic-math.c **** /**
 610:cordic-math.c ****  * @brief Fast fixedpoint calculation of cossinus hyperbollic using the
 611:cordic-math.c ****  * cordic algorithm
 612:cordic-math.c ****  *
 613:cordic-math.c ****  * @param theta Fixedpoint according to CORDIC_MATH_FRACTION_BITS in degrees, arccosh(theta)
 614:cordic-math.c ****  *
 615:cordic-math.c ****  * @return 32 bit int fixedpoint according to CORDIC_MATH_FRACTION_BITS, cossinus-hyperbollic(theta
 616:cordic-math.c ****  */
 617:cordic-math.c **** int32_t cordic_cosh(int32_t theta) {
 618:cordic-math.c ****     int tempX, k = 4, sumAngle = theta, y = 0,
 619:cordic-math.c ****                x = ONE_DIV_CORDIC_GAIN_HYPERBOLIC;
 620:cordic-math.c ****     for (int i = 1; i < CORDIC_SPEED_FACTOR; i++) {
 621:cordic-math.c ****         tempX = x;
 622:cordic-math.c ****         if (sumAngle > 0) {
 623:cordic-math.c ****             /* Rotate clockwise */
GAS LISTING C:\Users\elias\AppData\Local\Temp\ccM4DAnB.s 			page 14


 624:cordic-math.c ****             x += (y >> i);
 625:cordic-math.c ****             y += (tempX >> i);
 626:cordic-math.c ****             sumAngle -= LUT_CORDIC_ATANH[i - 1];
 627:cordic-math.c ****         } else {
 628:cordic-math.c ****             /* Rotate counterclockwise */
 629:cordic-math.c ****             x -= (y >> i);
 630:cordic-math.c ****             y -= (tempX >> i);
 631:cordic-math.c ****             sumAngle += LUT_CORDIC_ATANH[i - 1];
 632:cordic-math.c ****         }
 633:cordic-math.c ****         if (i == k) {
 634:cordic-math.c ****             k = (3 * k) + 1;
 635:cordic-math.c ****             tempX = x;
 636:cordic-math.c ****             if (sumAngle > 0) {
 637:cordic-math.c ****                 /* Rotate clockwise */
 638:cordic-math.c ****                 x += (y >> i);
 639:cordic-math.c ****                 y += (tempX >> i);
 640:cordic-math.c ****                 sumAngle -= LUT_CORDIC_ATANH[i - 1];
 641:cordic-math.c ****             } else {
 642:cordic-math.c ****                 /* Rotate counterclockwise */
 643:cordic-math.c ****                 x -= (y >> i);
 644:cordic-math.c ****                 y -= (tempX >> i);
 645:cordic-math.c ****                 sumAngle += LUT_CORDIC_ATANH[i - 1];
 646:cordic-math.c ****             }
 647:cordic-math.c ****         }
 648:cordic-math.c ****     }
 649:cordic-math.c ****     return x;
 650:cordic-math.c **** }
 651:cordic-math.c **** 
 652:cordic-math.c **** /**
 653:cordic-math.c ****  * @brief Fast fixedpoint calculation of tangens hyperbollic using the
 654:cordic-math.c ****  * cordic algorithm
 655:cordic-math.c ****  *
 656:cordic-math.c ****  * @param theta Fixedpoint according to CORDIC_MATH_FRACTION_BITS in degrees, tanh(theta)
 657:cordic-math.c ****  *
 658:cordic-math.c ****  * @return 32 bit int fixedpoint according to CORDIC_MATH_FRACTION_BITS, tangens-hyperbollic(theta)
 659:cordic-math.c ****  */
 660:cordic-math.c **** int32_t cordic_tanh(int32_t theta) {
 661:cordic-math.c ****     return (((long)cordic_sinh(theta) << CORDIC_MATH_FRACTION_BITS) /
 662:cordic-math.c ****             cordic_cosh(theta));
 663:cordic-math.c **** }
 664:cordic-math.c **** 
 665:cordic-math.c **** /**
 666:cordic-math.c ****  * @brief Fast fixedpoint calculation of e^x using the cordic algorithm
 667:cordic-math.c ****  *
 668:cordic-math.c ****  * @param exponent fixedpoint according to CORDIC_MATH_FRACTION_BITS exponent, e^exponent
 669:cordic-math.c ****  *
 670:cordic-math.c ****  * @return 32 bit int fixedpoint according to CORDIC_MATH_FRACTION_BITS, e^exponent
 671:cordic-math.c ****  */
 672:cordic-math.c **** int32_t cordic_exp(int32_t exponent) {
 673:cordic-math.c ****     int tempX, k = 4, sumAngle = to_degree(exponent),
 674:cordic-math.c ****                y = ONE_DIV_CORDIC_GAIN_HYPERBOLIC,
 675:cordic-math.c ****                x = ONE_DIV_CORDIC_GAIN_HYPERBOLIC, n = 0;
 676:cordic-math.c **** 
 677:cordic-math.c ****     while (sumAngle > ONE_EIGHTY_DIV_PI) {
 678:cordic-math.c ****         sumAngle -= ONE_EIGHTY_DIV_PI;
 679:cordic-math.c ****         n++;
 680:cordic-math.c ****     }
GAS LISTING C:\Users\elias\AppData\Local\Temp\ccM4DAnB.s 			page 15


 681:cordic-math.c **** 
 682:cordic-math.c ****     for (int i = 1; i < CORDIC_SPEED_FACTOR; i++) {
 683:cordic-math.c ****         tempX = x;
 684:cordic-math.c ****         if (sumAngle > 0) {
 685:cordic-math.c ****             /* Rotate clockwise */
 686:cordic-math.c ****             x += (y >> i);
 687:cordic-math.c ****             y += (tempX >> i);
 688:cordic-math.c ****             sumAngle -= LUT_CORDIC_ATANH[i - 1];
 689:cordic-math.c ****         } else {
 690:cordic-math.c ****             /* Rotate counterclockwise */
 691:cordic-math.c ****             x -= (y >> i);
 692:cordic-math.c ****             y -= (tempX >> i);
 693:cordic-math.c ****             sumAngle += LUT_CORDIC_ATANH[i - 1];
 694:cordic-math.c ****         }
 695:cordic-math.c ****         if (i == k) {
 696:cordic-math.c ****             k = (3 * k) + 1;
 697:cordic-math.c ****             tempX = x;
 698:cordic-math.c ****             if (sumAngle > 0) {
 699:cordic-math.c ****                 /* Rotate clockwise */
 700:cordic-math.c ****                 x += (y >> i);
 701:cordic-math.c ****                 y += (tempX >> i);
 702:cordic-math.c ****                 sumAngle -= LUT_CORDIC_ATANH[i - 1];
 703:cordic-math.c ****             } else {
 704:cordic-math.c ****                 /* Rotate counterclockwise */
 705:cordic-math.c ****                 x -= (y >> i);
 706:cordic-math.c ****                 y -= (tempX >> i);
 707:cordic-math.c ****                 sumAngle += LUT_CORDIC_ATANH[i - 1];
 708:cordic-math.c ****             }
 709:cordic-math.c ****         }
 710:cordic-math.c ****     }
 711:cordic-math.c **** 
 712:cordic-math.c ****     y = DECIMAL_TO_FP;
 713:cordic-math.c ****     for (int i = 0; i < n; i++) {
 714:cordic-math.c ****         y = ((long)y * EULER) >> CORDIC_MATH_FRACTION_BITS;
 715:cordic-math.c ****     }
 716:cordic-math.c ****     return ((long)x * y) >> CORDIC_MATH_FRACTION_BITS;
 717:cordic-math.c **** }
 718:cordic-math.c **** 
 719:cordic-math.c **** /**
 720:cordic-math.c ****  * @brief Fast fixedpoint calculation of a^x using the cordic algorithm
 721:cordic-math.c ****  *
 722:cordic-math.c ****  * @param base fixedpoint according to CORDIC_MATH_FRACTION_BITS base, base^exponent
 723:cordic-math.c ****  * @param exponent fixedpoint according to CORDIC_MATH_FRACTION_BITS base, base^exponent
 724:cordic-math.c ****  *
 725:cordic-math.c ****  * @return 32 bit int fixedpoint according to CORDIC_MATH_FRACTION_BITS, base^exponent
 726:cordic-math.c ****  */
 727:cordic-math.c **** int32_t cordic_pow(int32_t base, int32_t exponent) {
 728:cordic-math.c ****     return cordic_exp(exponent * cordic_ln(base) >> CORDIC_MATH_FRACTION_BITS);
 729:cordic-math.c **** }
 730:cordic-math.c **** 
 731:cordic-math.c **** /**
 732:cordic-math.c ****  * @brief Fast calculation of absolute
 733:cordic-math.c ****  *
 734:cordic-math.c ****  * @param input int
 735:cordic-math.c ****  *
 736:cordic-math.c ****  * @return 32 bit int, |input|
 737:cordic-math.c ****  */
GAS LISTING C:\Users\elias\AppData\Local\Temp\ccM4DAnB.s 			page 16


 738:cordic-math.c **** int32_t cordic_abs(int32_t input) {
 739:cordic-math.c ****     if (input > 0) {
 110              		.loc 1 739 5
 111 0000 9357F541 		srai	a5,a0,31
 112 0004 13D7F541 		srai	a4,a1,31
 113 0008 3D8D     		xor	a0,a5,a0
 114              	.LVL14:
 115 000a B98D     		xor	a1,a4,a1
 116              	.LVL15:
 117 000c 1D8D     		sub	a0,a0,a5
 118 000e 998D     		sub	a1,a1,a4
 119              	.LVL16:
  91:cordic-math.c ****     y = cordic_abs(y);
 120              		.loc 1 91 5
 121              		.loc 1 739 5
  88:cordic-math.c ****     int tempX;
 122              		.loc 1 88 49 is_stmt 0
 123 0010 8147     		li	a5,0
 124              	.LBB27:
  93:cordic-math.c ****         tempX = x;
 125              		.loc 1 93 5
 126 0012 3D46     		li	a2,15
 127 0014 31A0     		j	.L13
 128              	.LVL17:
 129              	.L16:
  93:cordic-math.c ****         tempX = x;
 130              		.loc 1 93 47
 131 0016 8507     		addi	a5,a5,1
 132              	.LVL18:
  97:cordic-math.c ****             y -= (tempX >> i);
 133              		.loc 1 97 15
 134 0018 B695     		add	a1,a1,a3
 135              	.LVL19:
  98:cordic-math.c ****         } else {
 136              		.loc 1 98 13 is_stmt 1
  98:cordic-math.c ****         } else {
 137              		.loc 1 98 15 is_stmt 0
 138 001a 198D     		sub	a0,a0,a4
 139              	.LVL20:
  93:cordic-math.c ****         tempX = x;
 140              		.loc 1 93 5
 141 001c 638DC700 		beq	a5,a2,.L15
 142              	.LVL21:
 143              	.L13:
  94:cordic-math.c ****         if (y > 0) {
 144              		.loc 1 94 9 is_stmt 1
  95:cordic-math.c ****             /* Rotate clockwise */
 145              		.loc 1 95 9
  97:cordic-math.c ****             y -= (tempX >> i);
 146              		.loc 1 97 13
 101:cordic-math.c ****             y += (tempX >> i);
 147              		.loc 1 101 13
 148 0020 B356F540 		sra	a3,a0,a5
 149 0024 33D7F540 		sra	a4,a1,a5
  95:cordic-math.c ****             /* Rotate clockwise */
 150              		.loc 1 95 12 is_stmt 0
 151 0028 E347A0FE 		bgt	a0,zero,.L16
GAS LISTING C:\Users\elias\AppData\Local\Temp\ccM4DAnB.s 			page 17


  93:cordic-math.c ****         tempX = x;
 152              		.loc 1 93 47
 153 002c 8507     		addi	a5,a5,1
 154              	.LVL22:
 101:cordic-math.c ****             y += (tempX >> i);
 155              		.loc 1 101 15
 156 002e 958D     		sub	a1,a1,a3
 157              	.LVL23:
 102:cordic-math.c ****         }
 158              		.loc 1 102 13 is_stmt 1
 102:cordic-math.c ****         }
 159              		.loc 1 102 15 is_stmt 0
 160 0030 3A95     		add	a0,a0,a4
 161              	.LVL24:
  93:cordic-math.c ****         tempX = x;
 162              		.loc 1 93 5
 163 0032 E397C7FE 		bne	a5,a2,.L13
 164              	.L15:
 165              	.LBE27:
 106:cordic-math.c **** }
 166              		.loc 1 106 5 is_stmt 1
 106:cordic-math.c **** }
 167              		.loc 1 106 21 is_stmt 0
 168 0036 13952500 		slli	a0,a1,2
 169              	.LVL25:
 170 003a AA95     		add	a1,a0,a1
 171              	.LVL26:
 172 003c 13955500 		slli	a0,a1,5
 173 0040 0D8D     		sub	a0,a0,a1
 107:cordic-math.c **** 
 174              		.loc 1 107 1
 175 0042 2181     		srli	a0,a0,8
 176 0044 8280     		ret
 177              		.cfi_endproc
 178              	.LFE1:
 180              		.section	.text.cordic_cos,"ax",@progbits
 181              		.align	1
 182              		.globl	cordic_cos
 184              	cordic_cos:
 185              	.LFB2:
 116:cordic-math.c ****     int x = CORDIC_GAIN, y = 0, sumAngle = 0, tempX;
 186              		.loc 1 116 35 is_stmt 1
 187              		.cfi_startproc
 188              	.LVL27:
 117:cordic-math.c **** 
 189              		.loc 1 117 5
 119:cordic-math.c **** 
 190              		.loc 1 119 5
 119:cordic-math.c **** 
 191              		.loc 1 119 11 is_stmt 0
 192 0000 DD67     		li	a5,94208
 193 0002 93870780 		addi	a5,a5,-2048
 194 0006 3363F502 		rem	t1,a0,a5
 195              	.LVL28:
 121:cordic-math.c ****         sumAngle = 180 << CORDIC_MATH_FRACTION_BITS;
 196              		.loc 1 121 5 is_stmt 1
 121:cordic-math.c ****         sumAngle = 180 << CORDIC_MATH_FRACTION_BITS;
GAS LISTING C:\Users\elias\AppData\Local\Temp\ccM4DAnB.s 			page 18


 197              		.loc 1 121 8 is_stmt 0
 198 000a 9966     		li	a3,24576
 199 000c 938606A0 		addi	a3,a3,-1536
 117:cordic-math.c **** 
 200              		.loc 1 117 33
 201 0010 0147     		li	a4,0
 121:cordic-math.c ****         sumAngle = 180 << CORDIC_MATH_FRACTION_BITS;
 202              		.loc 1 121 8
 203 0012 63D86600 		ble	t1,a3,.L18
 122:cordic-math.c ****     }
 204              		.loc 1 122 9 is_stmt 1
 205              	.LVL29:
 124:cordic-math.c ****         sumAngle = 360 << CORDIC_MATH_FRACTION_BITS;
 206              		.loc 1 124 5
 124:cordic-math.c ****         sumAngle = 360 << CORDIC_MATH_FRACTION_BITS;
 207              		.loc 1 124 8 is_stmt 0
 208 0016 4567     		li	a4,69632
 209 0018 130707E0 		addi	a4,a4,-512
 210 001c 63526706 		ble	t1,a4,.L25
 125:cordic-math.c ****     }
 211              		.loc 1 125 18
 212 0020 3E87     		mv	a4,a5
 213              	.LVL30:
 214              	.L18:
 215 0022 37060000 		lui	a2,%hi(.LANCHOR0+4)
 216 0026 8D65     		li	a1,12288
 217 0028 13064600 		addi	a2,a2,%lo(.LANCHOR0+4)
 218 002c 938505D0 		addi	a1,a1,-768
 219 0030 8147     		li	a5,0
 220 0032 8146     		li	a3,0
 221 0034 1305B009 		li	a0,155
 222              	.LBB28:
 128:cordic-math.c ****         tempX = x;
 223              		.loc 1 128 5
 224 0038 3D4E     		li	t3,15
 225 003a 11A8     		j	.L22
 226              	.LVL31:
 227              	.L26:
 128:cordic-math.c ****         tempX = x;
 228              		.loc 1 128 47
 229 003c 8507     		addi	a5,a5,1
 230              	.LVL32:
 132:cordic-math.c ****             y += (tempX >> i);
 231              		.loc 1 132 15
 232 003e 33051541 		sub	a0,a0,a7
 233              	.LVL33:
 133:cordic-math.c ****             sumAngle += LUT_CORDIC_ATAN[i];
 234              		.loc 1 133 13 is_stmt 1
 133:cordic-math.c ****             sumAngle += LUT_CORDIC_ATAN[i];
 235              		.loc 1 133 15 is_stmt 0
 236 0042 C296     		add	a3,a3,a6
 237              	.LVL34:
 134:cordic-math.c ****         } else {
 238              		.loc 1 134 13 is_stmt 1
 134:cordic-math.c ****         } else {
 239              		.loc 1 134 22 is_stmt 0
 240 0044 2E97     		add	a4,a4,a1
GAS LISTING C:\Users\elias\AppData\Local\Temp\ccM4DAnB.s 			page 19


 241              	.LVL35:
 128:cordic-math.c ****         tempX = x;
 242              		.loc 1 128 5
 243 0046 6381C703 		beq	a5,t3,.L21
 244              	.LVL36:
 245              	.L27:
 246 004a 0C42     		lw	a1,0(a2)
 247 004c 1106     		addi	a2,a2,4
 248              	.LVL37:
 249              	.L22:
 129:cordic-math.c ****         if (theta > sumAngle) {
 250              		.loc 1 129 9 is_stmt 1
 130:cordic-math.c ****             /* Rotate counter clockwise */
 251              		.loc 1 130 9
 132:cordic-math.c ****             y += (tempX >> i);
 252              		.loc 1 132 13
 137:cordic-math.c ****             y -= (tempX >> i);
 253              		.loc 1 137 13
 254 004e B3D8F640 		sra	a7,a3,a5
 255 0052 3358F540 		sra	a6,a0,a5
 130:cordic-math.c ****             /* Rotate counter clockwise */
 256              		.loc 1 130 12 is_stmt 0
 257 0056 E34367FE 		bgt	t1,a4,.L26
 128:cordic-math.c ****         tempX = x;
 258              		.loc 1 128 47
 259 005a 8507     		addi	a5,a5,1
 260              	.LVL38:
 139:cordic-math.c ****         }
 261              		.loc 1 139 22
 262 005c 0D8F     		sub	a4,a4,a1
 137:cordic-math.c ****             y -= (tempX >> i);
 263              		.loc 1 137 15
 264 005e 4695     		add	a0,a0,a7
 265              	.LVL39:
 138:cordic-math.c ****             sumAngle -= LUT_CORDIC_ATAN[i];
 266              		.loc 1 138 13 is_stmt 1
 138:cordic-math.c ****             sumAngle -= LUT_CORDIC_ATAN[i];
 267              		.loc 1 138 15 is_stmt 0
 268 0060 B3860641 		sub	a3,a3,a6
 269              	.LVL40:
 139:cordic-math.c ****         }
 270              		.loc 1 139 13 is_stmt 1
 128:cordic-math.c ****         tempX = x;
 271              		.loc 1 128 5 is_stmt 0
 272 0064 E393C7FF 		bne	a5,t3,.L27
 273              	.L21:
 274              	.LBE28:
 142:cordic-math.c ****         theta < (270 << CORDIC_MATH_FRACTION_BITS)) {
 275              		.loc 1 142 5 is_stmt 1
 142:cordic-math.c ****         theta < (270 << CORDIC_MATH_FRACTION_BITS)) {
 276              		.loc 1 142 51 is_stmt 0
 277 0068 E977     		li	a5,-24576
 278              	.LVL41:
 279 006a 9387F75F 		addi	a5,a5,1535
 280 006e 3E93     		add	t1,t1,a5
 281              	.LVL42:
 142:cordic-math.c ****         theta < (270 << CORDIC_MATH_FRACTION_BITS)) {
GAS LISTING C:\Users\elias\AppData\Local\Temp\ccM4DAnB.s 			page 20


 282              		.loc 1 142 8
 283 0070 AD67     		li	a5,45056
 284 0072 9387E73F 		addi	a5,a5,1022
 285 0076 63E46700 		bgtu	t1,a5,.L17
 144:cordic-math.c ****     }
 286              		.loc 1 144 9 is_stmt 1
 144:cordic-math.c ****     }
 287              		.loc 1 144 11 is_stmt 0
 288 007a 3305A040 		neg	a0,a0
 289              	.LVL43:
 146:cordic-math.c **** }
 290              		.loc 1 146 5 is_stmt 1
 291              	.L17:
 147:cordic-math.c **** 
 292              		.loc 1 147 1 is_stmt 0
 293 007e 8280     		ret
 294              	.LVL44:
 295              	.L25:
 122:cordic-math.c ****     }
 296              		.loc 1 122 18
 297 0080 2D67     		li	a4,45056
 298 0082 13070740 		addi	a4,a4,1024
 299 0086 71BF     		j	.L18
 300              		.cfi_endproc
 301              	.LFE2:
 303              		.section	.text.cordic_sin,"ax",@progbits
 304              		.align	1
 305              		.globl	cordic_sin
 307              	cordic_sin:
 308              	.LFB3:
 156:cordic-math.c ****     int x = CORDIC_GAIN, y = 0, sumAngle = 0, tempX;
 309              		.loc 1 156 35 is_stmt 1
 310              		.cfi_startproc
 311              	.LVL45:
 157:cordic-math.c **** 
 312              		.loc 1 157 5
 159:cordic-math.c **** 
 313              		.loc 1 159 5
 159:cordic-math.c **** 
 314              		.loc 1 159 11 is_stmt 0
 315 0000 DD67     		li	a5,94208
 316 0002 93870780 		addi	a5,a5,-2048
 317 0006 3363F502 		rem	t1,a0,a5
 318              	.LVL46:
 161:cordic-math.c ****         sumAngle = 180 << CORDIC_MATH_FRACTION_BITS;
 319              		.loc 1 161 5 is_stmt 1
 161:cordic-math.c ****         sumAngle = 180 << CORDIC_MATH_FRACTION_BITS;
 320              		.loc 1 161 8 is_stmt 0
 321 000a 9966     		li	a3,24576
 322 000c 938606A0 		addi	a3,a3,-1536
 157:cordic-math.c **** 
 323              		.loc 1 157 33
 324 0010 0147     		li	a4,0
 161:cordic-math.c ****         sumAngle = 180 << CORDIC_MATH_FRACTION_BITS;
 325              		.loc 1 161 8
 326 0012 63D86600 		ble	t1,a3,.L29
 162:cordic-math.c ****     }
GAS LISTING C:\Users\elias\AppData\Local\Temp\ccM4DAnB.s 			page 21


 327              		.loc 1 162 9 is_stmt 1
 328              	.LVL47:
 164:cordic-math.c ****         sumAngle = 360 << CORDIC_MATH_FRACTION_BITS;
 329              		.loc 1 164 5
 164:cordic-math.c ****         sumAngle = 360 << CORDIC_MATH_FRACTION_BITS;
 330              		.loc 1 164 8 is_stmt 0
 331 0016 4567     		li	a4,69632
 332 0018 130707E0 		addi	a4,a4,-512
 333 001c 63526706 		ble	t1,a4,.L36
 165:cordic-math.c ****     }
 334              		.loc 1 165 18
 335 0020 3E87     		mv	a4,a5
 336              	.LVL48:
 337              	.L29:
 338 0022 37060000 		lui	a2,%hi(.LANCHOR0+4)
 339 0026 8D65     		li	a1,12288
 340 0028 13064600 		addi	a2,a2,%lo(.LANCHOR0+4)
 341 002c 938505D0 		addi	a1,a1,-768
 342 0030 8147     		li	a5,0
 343 0032 0145     		li	a0,0
 344 0034 9306B009 		li	a3,155
 345              	.LBB29:
 168:cordic-math.c ****         tempX = x;
 346              		.loc 1 168 5
 347 0038 3D4E     		li	t3,15
 348 003a 11A8     		j	.L33
 349              	.LVL49:
 350              	.L37:
 168:cordic-math.c ****         tempX = x;
 351              		.loc 1 168 47
 352 003c 8507     		addi	a5,a5,1
 353              	.LVL50:
 172:cordic-math.c ****             y += (tempX >> i);
 354              		.loc 1 172 15
 355 003e B3861641 		sub	a3,a3,a7
 356              	.LVL51:
 173:cordic-math.c ****             sumAngle += LUT_CORDIC_ATAN[i];
 357              		.loc 1 173 13 is_stmt 1
 173:cordic-math.c ****             sumAngle += LUT_CORDIC_ATAN[i];
 358              		.loc 1 173 15 is_stmt 0
 359 0042 4295     		add	a0,a0,a6
 360              	.LVL52:
 174:cordic-math.c ****         } else {
 361              		.loc 1 174 13 is_stmt 1
 174:cordic-math.c ****         } else {
 362              		.loc 1 174 22 is_stmt 0
 363 0044 2E97     		add	a4,a4,a1
 364              	.LVL53:
 168:cordic-math.c ****         tempX = x;
 365              		.loc 1 168 5
 366 0046 6381C703 		beq	a5,t3,.L32
 367              	.LVL54:
 368              	.L38:
 369 004a 0C42     		lw	a1,0(a2)
 370 004c 1106     		addi	a2,a2,4
 371              	.LVL55:
 372              	.L33:
GAS LISTING C:\Users\elias\AppData\Local\Temp\ccM4DAnB.s 			page 22


 169:cordic-math.c ****         if (theta > sumAngle) {
 373              		.loc 1 169 9 is_stmt 1
 170:cordic-math.c ****             /* Rotate counter clockwise */
 374              		.loc 1 170 9
 172:cordic-math.c ****             y += (tempX >> i);
 375              		.loc 1 172 13
 177:cordic-math.c ****             y -= (tempX >> i);
 376              		.loc 1 177 13
 377 004e B358F540 		sra	a7,a0,a5
 378 0052 33D8F640 		sra	a6,a3,a5
 170:cordic-math.c ****             /* Rotate counter clockwise */
 379              		.loc 1 170 12 is_stmt 0
 380 0056 E34367FE 		bgt	t1,a4,.L37
 168:cordic-math.c ****         tempX = x;
 381              		.loc 1 168 47
 382 005a 8507     		addi	a5,a5,1
 383              	.LVL56:
 179:cordic-math.c ****         }
 384              		.loc 1 179 22
 385 005c 0D8F     		sub	a4,a4,a1
 177:cordic-math.c ****             y -= (tempX >> i);
 386              		.loc 1 177 15
 387 005e C696     		add	a3,a3,a7
 388              	.LVL57:
 178:cordic-math.c ****             sumAngle -= LUT_CORDIC_ATAN[i];
 389              		.loc 1 178 13 is_stmt 1
 178:cordic-math.c ****             sumAngle -= LUT_CORDIC_ATAN[i];
 390              		.loc 1 178 15 is_stmt 0
 391 0060 33050541 		sub	a0,a0,a6
 392              	.LVL58:
 179:cordic-math.c ****         }
 393              		.loc 1 179 13 is_stmt 1
 168:cordic-math.c ****         tempX = x;
 394              		.loc 1 168 5 is_stmt 0
 395 0064 E393C7FF 		bne	a5,t3,.L38
 396              	.L32:
 397              	.LBE29:
 183:cordic-math.c ****         theta < (270 << CORDIC_MATH_FRACTION_BITS)) {
 398              		.loc 1 183 5 is_stmt 1
 183:cordic-math.c ****         theta < (270 << CORDIC_MATH_FRACTION_BITS)) {
 399              		.loc 1 183 51 is_stmt 0
 400 0068 E977     		li	a5,-24576
 401              	.LVL59:
 402 006a 9387F75F 		addi	a5,a5,1535
 403 006e 3E93     		add	t1,t1,a5
 404              	.LVL60:
 183:cordic-math.c ****         theta < (270 << CORDIC_MATH_FRACTION_BITS)) {
 405              		.loc 1 183 8
 406 0070 AD67     		li	a5,45056
 407 0072 9387E73F 		addi	a5,a5,1022
 408 0076 63E46700 		bgtu	t1,a5,.L28
 185:cordic-math.c ****     }
 409              		.loc 1 185 9 is_stmt 1
 185:cordic-math.c ****     }
 410              		.loc 1 185 11 is_stmt 0
 411 007a 3305A040 		neg	a0,a0
 412              	.LVL61:
GAS LISTING C:\Users\elias\AppData\Local\Temp\ccM4DAnB.s 			page 23


 188:cordic-math.c **** }
 413              		.loc 1 188 5 is_stmt 1
 414              	.L28:
 189:cordic-math.c **** 
 415              		.loc 1 189 1 is_stmt 0
 416 007e 8280     		ret
 417              	.LVL62:
 418              	.L36:
 162:cordic-math.c ****     }
 419              		.loc 1 162 18
 420 0080 2D67     		li	a4,45056
 421 0082 13070740 		addi	a4,a4,1024
 422 0086 71BF     		j	.L29
 423              		.cfi_endproc
 424              	.LFE3:
 426              		.section	.text.cordic_asin,"ax",@progbits
 427              		.align	1
 428              		.globl	cordic_asin
 430              	cordic_asin:
 431              	.LFB4:
 198:cordic-math.c ****     int x = CORDIC_GAIN, y = 0, sumAngle = 0, tempX,
 432              		.loc 1 198 36 is_stmt 1
 433              		.cfi_startproc
 434              	.LVL63:
 199:cordic-math.c ****         ninety = (90 << CORDIC_MATH_FRACTION_BITS);
 435              		.loc 1 199 5
 202:cordic-math.c ****         tempX = x;
 436              		.loc 1 202 5
 437              	.LBB30:
 202:cordic-math.c ****         tempX = x;
 438              		.loc 1 202 10
 439 0000 37060000 		lui	a2,%hi(.LANCHOR0+4)
 440              	.LBE30:
 198:cordic-math.c ****     int x = CORDIC_GAIN, y = 0, sumAngle = 0, tempX,
 441              		.loc 1 198 36 is_stmt 0
 442 0004 0D68     		li	a6,12288
 443 0006 13064600 		addi	a2,a2,%lo(.LANCHOR0+4)
 444 000a 130808D0 		addi	a6,a6,-768
 445              	.LBB31:
 202:cordic-math.c ****         tempX = x;
 446              		.loc 1 202 14
 447 000e 8147     		li	a5,0
 448              	.LBE31:
 199:cordic-math.c ****         ninety = (90 << CORDIC_MATH_FRACTION_BITS);
 449              		.loc 1 199 33
 450 0010 8145     		li	a1,0
 199:cordic-math.c ****         ninety = (90 << CORDIC_MATH_FRACTION_BITS);
 451              		.loc 1 199 26
 452 0012 0147     		li	a4,0
 199:cordic-math.c ****         ninety = (90 << CORDIC_MATH_FRACTION_BITS);
 453              		.loc 1 199 9
 454 0014 9306B009 		li	a3,155
 455              	.LBB32:
 202:cordic-math.c ****         tempX = x;
 456              		.loc 1 202 5
 457 0018 3D4E     		li	t3,15
 458 001a 19A8     		j	.L43
GAS LISTING C:\Users\elias\AppData\Local\Temp\ccM4DAnB.s 			page 24


 459              	.LVL64:
 460              	.L46:
 202:cordic-math.c ****         tempX = x;
 461              		.loc 1 202 47
 462 001c 8507     		addi	a5,a5,1
 463              	.LVL65:
 206:cordic-math.c ****             y += (tempX >> i);
 464              		.loc 1 206 15
 465 001e B3866640 		sub	a3,a3,t1
 466              	.LVL66:
 207:cordic-math.c ****             sumAngle += LUT_CORDIC_ATAN[i];
 467              		.loc 1 207 13 is_stmt 1
 207:cordic-math.c ****             sumAngle += LUT_CORDIC_ATAN[i];
 468              		.loc 1 207 15 is_stmt 0
 469 0022 4697     		add	a4,a4,a7
 470              	.LVL67:
 208:cordic-math.c ****         } else {
 471              		.loc 1 208 13 is_stmt 1
 208:cordic-math.c ****         } else {
 472              		.loc 1 208 22 is_stmt 0
 473 0024 C295     		add	a1,a6,a1
 474              	.LVL68:
 202:cordic-math.c ****         tempX = x;
 475              		.loc 1 202 5
 476 0026 6383C703 		beq	a5,t3,.L42
 477              	.L47:
 478 002a 03280600 		lw	a6,0(a2)
 479 002e 1106     		addi	a2,a2,4
 480              	.LVL69:
 481              	.L43:
 203:cordic-math.c ****         if (y < input) {
 482              		.loc 1 203 9 is_stmt 1
 204:cordic-math.c ****             /* Rotate counter clockwise */
 483              		.loc 1 204 9
 206:cordic-math.c ****             y += (tempX >> i);
 484              		.loc 1 206 13
 211:cordic-math.c ****             y -= (tempX >> i);
 485              		.loc 1 211 13
 486 0030 3353F740 		sra	t1,a4,a5
 487 0034 B3D8F640 		sra	a7,a3,a5
 204:cordic-math.c ****             /* Rotate counter clockwise */
 488              		.loc 1 204 12 is_stmt 0
 489 0038 E342A7FE 		bgt	a0,a4,.L46
 202:cordic-math.c ****         tempX = x;
 490              		.loc 1 202 47
 491 003c 8507     		addi	a5,a5,1
 492              	.LVL70:
 213:cordic-math.c ****         }
 493              		.loc 1 213 22
 494 003e B3850541 		sub	a1,a1,a6
 495              	.LVL71:
 211:cordic-math.c ****             y -= (tempX >> i);
 496              		.loc 1 211 15
 497 0042 9A96     		add	a3,a3,t1
 498              	.LVL72:
 212:cordic-math.c ****             sumAngle -= LUT_CORDIC_ATAN[i];
 499              		.loc 1 212 13 is_stmt 1
GAS LISTING C:\Users\elias\AppData\Local\Temp\ccM4DAnB.s 			page 25


 212:cordic-math.c ****             sumAngle -= LUT_CORDIC_ATAN[i];
 500              		.loc 1 212 15 is_stmt 0
 501 0044 33071741 		sub	a4,a4,a7
 502              	.LVL73:
 213:cordic-math.c ****         }
 503              		.loc 1 213 13 is_stmt 1
 202:cordic-math.c ****         tempX = x;
 504              		.loc 1 202 5 is_stmt 0
 505 0048 E391C7FF 		bne	a5,t3,.L47
 506              	.L42:
 507              	.LBE32:
 216:cordic-math.c ****         sumAngle = -ninety;
 508              		.loc 1 216 5 is_stmt 1
 509 004c 9967     		li	a5,24576
 510              	.LVL74:
 511 004e 938707A0 		addi	a5,a5,-1536
 512 0052 2E85     		mv	a0,a1
 513              	.LVL75:
 514 0054 63CAB700 		bgt	a1,a5,.L48
 515              	.LVL76:
 221:cordic-math.c **** }
 516              		.loc 1 221 5
 221:cordic-math.c **** }
 517              		.loc 1 221 12 is_stmt 0
 518 0058 E977     		li	a5,-24576
 519 005a 93870760 		addi	a5,a5,1536
 520 005e 6343F500 		blt	a0,a5,.L49
 521              	.LVL77:
 522              	.L45:
 222:cordic-math.c **** 
 523              		.loc 1 222 1
 524 0062 8280     		ret
 525              	.L49:
 221:cordic-math.c **** }
 526              		.loc 1 221 12
 527 0064 3E85     		mv	a0,a5
 222:cordic-math.c **** 
 528              		.loc 1 222 1
 529 0066 8280     		ret
 530              	.LVL78:
 531              	.L48:
 532 0068 3E85     		mv	a0,a5
 533              	.LVL79:
 221:cordic-math.c **** }
 534              		.loc 1 221 5 is_stmt 1
 221:cordic-math.c **** }
 535              		.loc 1 221 12 is_stmt 0
 536 006a E977     		li	a5,-24576
 537 006c 93870760 		addi	a5,a5,1536
 538 0070 E359F5FE 		bge	a0,a5,.L45
 539 0074 C5BF     		j	.L49
 540              		.cfi_endproc
 541              	.LFE4:
 543              		.section	.text.cordic_acos,"ax",@progbits
 544              		.align	1
 545              		.globl	cordic_acos
 547              	cordic_acos:
GAS LISTING C:\Users\elias\AppData\Local\Temp\ccM4DAnB.s 			page 26


 548              	.LFB5:
 231:cordic-math.c ****     int x = 0, y = CORDIC_GAIN, sumAngle = 90 << CORDIC_MATH_FRACTION_BITS,
 549              		.loc 1 231 37 is_stmt 1
 550              		.cfi_startproc
 551              	.LVL80:
 232:cordic-math.c ****         tempX;
 552              		.loc 1 232 5
 235:cordic-math.c ****         tempX = x;
 553              		.loc 1 235 5
 554              	.LBB33:
 235:cordic-math.c ****         tempX = x;
 555              		.loc 1 235 10
 556 0000 37060000 		lui	a2,%hi(.LANCHOR0+4)
 557              	.LBE33:
 231:cordic-math.c ****     int x = 0, y = CORDIC_GAIN, sumAngle = 90 << CORDIC_MATH_FRACTION_BITS,
 558              		.loc 1 231 37 is_stmt 0
 559 0004 0D68     		li	a6,12288
 232:cordic-math.c ****         tempX;
 560              		.loc 1 232 33
 561 0006 9965     		li	a1,24576
 562 0008 13064600 		addi	a2,a2,%lo(.LANCHOR0+4)
 231:cordic-math.c ****     int x = 0, y = CORDIC_GAIN, sumAngle = 90 << CORDIC_MATH_FRACTION_BITS,
 563              		.loc 1 231 37
 564 000c 130808D0 		addi	a6,a6,-768
 565              	.LBB34:
 235:cordic-math.c ****         tempX = x;
 566              		.loc 1 235 14
 567 0010 8147     		li	a5,0
 568              	.LBE34:
 232:cordic-math.c ****         tempX;
 569              		.loc 1 232 33
 570 0012 938505A0 		addi	a1,a1,-1536
 232:cordic-math.c ****         tempX;
 571              		.loc 1 232 16
 572 0016 9306B009 		li	a3,155
 232:cordic-math.c ****         tempX;
 573              		.loc 1 232 9
 574 001a 0147     		li	a4,0
 575              	.LBB35:
 235:cordic-math.c ****         tempX = x;
 576              		.loc 1 235 5
 577 001c 3D4E     		li	t3,15
 578 001e 19A8     		j	.L54
 579              	.LVL81:
 580              	.L56:
 235:cordic-math.c ****         tempX = x;
 581              		.loc 1 235 47
 582 0020 8507     		addi	a5,a5,1
 583              	.LVL82:
 239:cordic-math.c ****             y += (tempX >> i);
 584              		.loc 1 239 15
 585 0022 33076740 		sub	a4,a4,t1
 586              	.LVL83:
 240:cordic-math.c ****             sumAngle += LUT_CORDIC_ATAN[i];
 587              		.loc 1 240 13 is_stmt 1
 240:cordic-math.c ****             sumAngle += LUT_CORDIC_ATAN[i];
 588              		.loc 1 240 15 is_stmt 0
GAS LISTING C:\Users\elias\AppData\Local\Temp\ccM4DAnB.s 			page 27


 589 0026 C696     		add	a3,a3,a7
 590              	.LVL84:
 241:cordic-math.c ****         } else {
 591              		.loc 1 241 13 is_stmt 1
 241:cordic-math.c ****         } else {
 592              		.loc 1 241 22 is_stmt 0
 593 0028 C295     		add	a1,a1,a6
 594              	.LVL85:
 235:cordic-math.c ****         tempX = x;
 595              		.loc 1 235 5
 596 002a 6383C703 		beq	a5,t3,.L53
 597              	.L57:
 598 002e 03280600 		lw	a6,0(a2)
 599 0032 1106     		addi	a2,a2,4
 600              	.LVL86:
 601              	.L54:
 236:cordic-math.c ****         if (x > xInput) {
 602              		.loc 1 236 9 is_stmt 1
 237:cordic-math.c ****             /* Rotate counter clockwise */
 603              		.loc 1 237 9
 239:cordic-math.c ****             y += (tempX >> i);
 604              		.loc 1 239 13
 244:cordic-math.c ****             y -= (tempX >> i);
 605              		.loc 1 244 13
 606 0034 33D3F640 		sra	t1,a3,a5
 607 0038 B358F740 		sra	a7,a4,a5
 237:cordic-math.c ****             /* Rotate counter clockwise */
 608              		.loc 1 237 12 is_stmt 0
 609 003c E342E5FE 		blt	a0,a4,.L56
 235:cordic-math.c ****         tempX = x;
 610              		.loc 1 235 47
 611 0040 8507     		addi	a5,a5,1
 612              	.LVL87:
 246:cordic-math.c ****         }
 613              		.loc 1 246 22
 614 0042 B3850541 		sub	a1,a1,a6
 615              	.LVL88:
 244:cordic-math.c ****             y -= (tempX >> i);
 616              		.loc 1 244 15
 617 0046 1A97     		add	a4,a4,t1
 618              	.LVL89:
 245:cordic-math.c ****             sumAngle -= LUT_CORDIC_ATAN[i];
 619              		.loc 1 245 13 is_stmt 1
 245:cordic-math.c ****             sumAngle -= LUT_CORDIC_ATAN[i];
 620              		.loc 1 245 15 is_stmt 0
 621 0048 B3861641 		sub	a3,a3,a7
 622              	.LVL90:
 246:cordic-math.c ****         }
 623              		.loc 1 246 13 is_stmt 1
 235:cordic-math.c ****         tempX = x;
 624              		.loc 1 235 5 is_stmt 0
 625 004c E391C7FF 		bne	a5,t3,.L57
 626              	.L53:
 627              	.LBE35:
 249:cordic-math.c ****         sumAngle = 180 * DECIMAL_TO_FP;
 628              		.loc 1 249 5 is_stmt 1
 249:cordic-math.c ****         sumAngle = 180 * DECIMAL_TO_FP;
GAS LISTING C:\Users\elias\AppData\Local\Temp\ccM4DAnB.s 			page 28


 629              		.loc 1 249 8 is_stmt 0
 630 0050 AD67     		li	a5,45056
 631              	.LVL91:
 632 0052 93870740 		addi	a5,a5,1024
 633 0056 63F3B700 		bleu	a1,a5,.L50
 250:cordic-math.c ****     } else if (sumAngle < 0) {
 634              		.loc 1 250 18
 635 005a BE85     		mv	a1,a5
 636              	.LVL92:
 254:cordic-math.c **** }
 637              		.loc 1 254 5 is_stmt 1
 638              	.L50:
 255:cordic-math.c **** 
 639              		.loc 1 255 1 is_stmt 0
 640 005c 2E85     		mv	a0,a1
 641              	.LVL93:
 642 005e 8280     		ret
 643              		.cfi_endproc
 644              	.LFE5:
 646              		.section	.text.cordic_tan,"ax",@progbits
 647              		.align	1
 648              		.globl	cordic_tan
 650              	cordic_tan:
 651              	.LFB6:
 264:cordic-math.c ****         int x = CORDIC_GAIN, y = 0, sumAngle = 0, tempX;
 652              		.loc 1 264 35 is_stmt 1
 653              		.cfi_startproc
 654              	.LVL94:
 265:cordic-math.c **** 
 655              		.loc 1 265 9
 267:cordic-math.c **** 
 656              		.loc 1 267 5
 267:cordic-math.c **** 
 657              		.loc 1 267 11 is_stmt 0
 658 0000 DD67     		li	a5,94208
 659 0002 93870780 		addi	a5,a5,-2048
 660 0006 3365F502 		rem	a0,a0,a5
 661              	.LVL95:
 269:cordic-math.c ****         sumAngle = 180 << CORDIC_MATH_FRACTION_BITS;
 662              		.loc 1 269 5 is_stmt 1
 269:cordic-math.c ****         sumAngle = 180 << CORDIC_MATH_FRACTION_BITS;
 663              		.loc 1 269 8 is_stmt 0
 664 000a 1967     		li	a4,24576
 665 000c 130707A0 		addi	a4,a4,-1536
 265:cordic-math.c **** 
 666              		.loc 1 265 37
 667 0010 0146     		li	a2,0
 269:cordic-math.c ****         sumAngle = 180 << CORDIC_MATH_FRACTION_BITS;
 668              		.loc 1 269 8
 669 0012 6358A700 		ble	a0,a4,.L59
 270:cordic-math.c ****     }
 670              		.loc 1 270 9 is_stmt 1
 671              	.LVL96:
 272:cordic-math.c ****         sumAngle = 360 << CORDIC_MATH_FRACTION_BITS;
 672              		.loc 1 272 5
 272:cordic-math.c ****         sumAngle = 360 << CORDIC_MATH_FRACTION_BITS;
 673              		.loc 1 272 8 is_stmt 0
GAS LISTING C:\Users\elias\AppData\Local\Temp\ccM4DAnB.s 			page 29


 674 0016 4567     		li	a4,69632
 675 0018 130707E0 		addi	a4,a4,-512
 676 001c 6359A706 		ble	a0,a4,.L66
 273:cordic-math.c ****     }
 677              		.loc 1 273 18
 678 0020 3E86     		mv	a2,a5
 679              	.LVL97:
 680              	.L59:
 681 0022 B7050000 		lui	a1,%hi(.LANCHOR0+4)
 682 0026 0D68     		li	a6,12288
 683 0028 93854500 		addi	a1,a1,%lo(.LANCHOR0+4)
 684 002c 130808D0 		addi	a6,a6,-768
 685 0030 8147     		li	a5,0
 686 0032 0147     		li	a4,0
 687 0034 9306B009 		li	a3,155
 688              	.LBB36:
 276:cordic-math.c ****         tempX = x;
 689              		.loc 1 276 5
 690 0038 3D4E     		li	t3,15
 691 003a 19A8     		j	.L63
 692              	.LVL98:
 693              	.L67:
 276:cordic-math.c ****         tempX = x;
 694              		.loc 1 276 47
 695 003c 8507     		addi	a5,a5,1
 696              	.LVL99:
 280:cordic-math.c ****             y += (tempX >> i);
 697              		.loc 1 280 15
 698 003e B3866640 		sub	a3,a3,t1
 699              	.LVL100:
 281:cordic-math.c ****             sumAngle += LUT_CORDIC_ATAN[i];
 700              		.loc 1 281 13 is_stmt 1
 281:cordic-math.c ****             sumAngle += LUT_CORDIC_ATAN[i];
 701              		.loc 1 281 15 is_stmt 0
 702 0042 4697     		add	a4,a4,a7
 703              	.LVL101:
 282:cordic-math.c ****         } else {
 704              		.loc 1 282 13 is_stmt 1
 282:cordic-math.c ****         } else {
 705              		.loc 1 282 22 is_stmt 0
 706 0044 4296     		add	a2,a2,a6
 707              	.LVL102:
 276:cordic-math.c ****         tempX = x;
 708              		.loc 1 276 5
 709 0046 6383C703 		beq	a5,t3,.L62
 710              	.LVL103:
 711              	.L68:
 712 004a 03A80500 		lw	a6,0(a1)
 713 004e 9105     		addi	a1,a1,4
 714              	.LVL104:
 715              	.L63:
 277:cordic-math.c ****         if (theta > sumAngle) {
 716              		.loc 1 277 9 is_stmt 1
 278:cordic-math.c ****             /* Rotate counter clockwise */
 717              		.loc 1 278 9
 280:cordic-math.c ****             y += (tempX >> i);
 718              		.loc 1 280 13
GAS LISTING C:\Users\elias\AppData\Local\Temp\ccM4DAnB.s 			page 30


 285:cordic-math.c ****             y -= (tempX >> i);
 719              		.loc 1 285 13
 720 0050 3353F740 		sra	t1,a4,a5
 721 0054 B3D8F640 		sra	a7,a3,a5
 278:cordic-math.c ****             /* Rotate counter clockwise */
 722              		.loc 1 278 12 is_stmt 0
 723 0058 E342A6FE 		bgt	a0,a2,.L67
 276:cordic-math.c ****         tempX = x;
 724              		.loc 1 276 47
 725 005c 8507     		addi	a5,a5,1
 726              	.LVL105:
 287:cordic-math.c ****         }
 727              		.loc 1 287 22
 728 005e 33060641 		sub	a2,a2,a6
 285:cordic-math.c ****             y -= (tempX >> i);
 729              		.loc 1 285 15
 730 0062 9A96     		add	a3,a3,t1
 731              	.LVL106:
 286:cordic-math.c ****             sumAngle -= LUT_CORDIC_ATAN[i];
 732              		.loc 1 286 13 is_stmt 1
 286:cordic-math.c ****             sumAngle -= LUT_CORDIC_ATAN[i];
 733              		.loc 1 286 15 is_stmt 0
 734 0064 33071741 		sub	a4,a4,a7
 735              	.LVL107:
 287:cordic-math.c ****         }
 736              		.loc 1 287 13 is_stmt 1
 276:cordic-math.c ****         tempX = x;
 737              		.loc 1 276 5 is_stmt 0
 738 0068 E391C7FF 		bne	a5,t3,.L68
 739              	.L62:
 740              	.LBE36:
 292:cordic-math.c ****         theta < (270 << CORDIC_MATH_FRACTION_BITS)) {
 741              		.loc 1 292 5 is_stmt 1
 292:cordic-math.c ****         theta < (270 << CORDIC_MATH_FRACTION_BITS)) {
 742              		.loc 1 292 51 is_stmt 0
 743 006c E977     		li	a5,-24576
 744              	.LVL108:
 745 006e 9387F75F 		addi	a5,a5,1535
 746 0072 3E95     		add	a0,a0,a5
 747              	.LVL109:
 292:cordic-math.c ****         theta < (270 << CORDIC_MATH_FRACTION_BITS)) {
 748              		.loc 1 292 8
 749 0074 AD67     		li	a5,45056
 750 0076 9387E73F 		addi	a5,a5,1022
 751 007a 63E6A700 		bgtu	a0,a5,.L64
 294:cordic-math.c ****         y = -y;
 752              		.loc 1 294 9 is_stmt 1
 294:cordic-math.c ****         y = -y;
 753              		.loc 1 294 11 is_stmt 0
 754 007e B306D040 		neg	a3,a3
 755              	.LVL110:
 295:cordic-math.c ****     }
 756              		.loc 1 295 9 is_stmt 1
 295:cordic-math.c ****     }
 757              		.loc 1 295 11 is_stmt 0
 758 0082 3307E040 		neg	a4,a4
 759              	.LVL111:
GAS LISTING C:\Users\elias\AppData\Local\Temp\ccM4DAnB.s 			page 31


 760              	.L64:
 298:cordic-math.c **** }
 761              		.loc 1 298 5 is_stmt 1
 298:cordic-math.c **** }
 762              		.loc 1 298 15 is_stmt 0
 763 0086 2207     		slli	a4,a4,8
 764              	.LVL112:
 299:cordic-math.c **** 
 765              		.loc 1 299 1
 766 0088 3345D702 		div	a0,a4,a3
 767              	.LVL113:
 768 008c 8280     		ret
 769              	.LVL114:
 770              	.L66:
 270:cordic-math.c ****     }
 771              		.loc 1 270 18
 772 008e 2D66     		li	a2,45056
 773 0090 13060640 		addi	a2,a2,1024
 774 0094 79B7     		j	.L59
 775              		.cfi_endproc
 776              	.LFE6:
 778              		.section	.text.cordic_rectangular_polar,"ax",@progbits
 779              		.align	1
 780              		.globl	cordic_rectangular_polar
 782              	cordic_rectangular_polar:
 783              	.LFB7:
 308:cordic-math.c ****     int tempX, sumAngle = 0, x = input->x, y = input->y;
 784              		.loc 1 308 54 is_stmt 1
 785              		.cfi_startproc
 786              	.LVL115:
 309:cordic-math.c ****     if (x < 0 && y >= 0) {
 787              		.loc 1 309 5
 309:cordic-math.c ****     if (x < 0 && y >= 0) {
 788              		.loc 1 309 30 is_stmt 0
 789 0000 1441     		lw	a3,0(a0)
 790              	.LVL116:
 309:cordic-math.c ****     if (x < 0 && y >= 0) {
 791              		.loc 1 309 44
 792 0002 5841     		lw	a4,4(a0)
 793              	.LVL117:
 310:cordic-math.c ****         sumAngle = 90 * (1 << CORDIC_MATH_FRACTION_BITS);
 794              		.loc 1 310 5 is_stmt 1
 309:cordic-math.c ****     if (x < 0 && y >= 0) {
 795              		.loc 1 309 16 is_stmt 0
 796 0004 8145     		li	a1,0
 310:cordic-math.c ****         sumAngle = 90 * (1 << CORDIC_MATH_FRACTION_BITS);
 797              		.loc 1 310 8
 798 0006 63CF0604 		blt	a3,zero,.L77
 799              	.LVL118:
 800              	.L70:
 801 000a 37060000 		lui	a2,%hi(.LANCHOR0+4)
 311:cordic-math.c ****         x = cordic_abs(x);
 802              		.loc 1 311 18
 803 000e 0D68     		li	a6,12288
 804 0010 13064600 		addi	a2,a2,%lo(.LANCHOR0+4)
 805 0014 130808D0 		addi	a6,a6,-768
 806 0018 8147     		li	a5,0
GAS LISTING C:\Users\elias\AppData\Local\Temp\ccM4DAnB.s 			page 32


 807              	.LBB37:
 319:cordic-math.c ****         tempX = x;
 808              		.loc 1 319 5
 809 001a 3D4E     		li	t3,15
 810 001c 19A8     		j	.L74
 811              	.LVL119:
 812              	.L78:
 319:cordic-math.c ****         tempX = x;
 813              		.loc 1 319 30
 814 001e 8507     		addi	a5,a5,1
 815              	.LVL120:
 323:cordic-math.c ****             y -= (tempX >> i);
 816              		.loc 1 323 15
 817 0020 9A96     		add	a3,a3,t1
 818              	.LVL121:
 324:cordic-math.c ****             sumAngle += LUT_CORDIC_ATAN[i];
 819              		.loc 1 324 13 is_stmt 1
 324:cordic-math.c ****             sumAngle += LUT_CORDIC_ATAN[i];
 820              		.loc 1 324 15 is_stmt 0
 821 0022 33071741 		sub	a4,a4,a7
 822              	.LVL122:
 325:cordic-math.c ****         } else {
 823              		.loc 1 325 13 is_stmt 1
 325:cordic-math.c ****         } else {
 824              		.loc 1 325 22 is_stmt 0
 825 0026 C295     		add	a1,a6,a1
 826              	.LVL123:
 319:cordic-math.c ****         tempX = x;
 827              		.loc 1 319 5
 828 0028 6383C703 		beq	a5,t3,.L73
 829              	.LVL124:
 830              	.L79:
 831 002c 03280600 		lw	a6,0(a2)
 832 0030 1106     		addi	a2,a2,4
 833              	.LVL125:
 834              	.L74:
 320:cordic-math.c ****         if (y > 0) {
 835              		.loc 1 320 9 is_stmt 1
 321:cordic-math.c ****             /* Rotate clockwise */
 836              		.loc 1 321 9
 323:cordic-math.c ****             y -= (tempX >> i);
 837              		.loc 1 323 13
 328:cordic-math.c ****             y += (tempX >> i);
 838              		.loc 1 328 13
 839 0032 3353F740 		sra	t1,a4,a5
 840 0036 B3D8F640 		sra	a7,a3,a5
 321:cordic-math.c ****             /* Rotate clockwise */
 841              		.loc 1 321 12 is_stmt 0
 842 003a E342E0FE 		bgt	a4,zero,.L78
 319:cordic-math.c ****         tempX = x;
 843              		.loc 1 319 30
 844 003e 8507     		addi	a5,a5,1
 845              	.LVL126:
 330:cordic-math.c ****         }
 846              		.loc 1 330 22
 847 0040 B3850541 		sub	a1,a1,a6
 328:cordic-math.c ****             y += (tempX >> i);
GAS LISTING C:\Users\elias\AppData\Local\Temp\ccM4DAnB.s 			page 33


 848              		.loc 1 328 15
 849 0044 B3866640 		sub	a3,a3,t1
 850              	.LVL127:
 329:cordic-math.c ****             sumAngle -= LUT_CORDIC_ATAN[i];
 851              		.loc 1 329 13 is_stmt 1
 329:cordic-math.c ****             sumAngle -= LUT_CORDIC_ATAN[i];
 852              		.loc 1 329 15 is_stmt 0
 853 0048 4697     		add	a4,a4,a7
 854              	.LVL128:
 330:cordic-math.c ****         }
 855              		.loc 1 330 13 is_stmt 1
 319:cordic-math.c ****         tempX = x;
 856              		.loc 1 319 5 is_stmt 0
 857 004a E391C7FF 		bne	a5,t3,.L79
 858              	.L73:
 859              	.LBE37:
 333:cordic-math.c ****     input->r = ((long)x * CORDIC_GAIN) >> CORDIC_MATH_FRACTION_BITS;
 860              		.loc 1 333 5 is_stmt 1
 334:cordic-math.c ****     return 0;
 861              		.loc 1 334 25 is_stmt 0
 862 004e 93972600 		slli	a5,a3,2
 863              	.LVL129:
 864 0052 BE96     		add	a3,a5,a3
 865              	.LVL130:
 866 0054 93975600 		slli	a5,a3,5
 867 0058 958F     		sub	a5,a5,a3
 334:cordic-math.c ****     return 0;
 868              		.loc 1 334 40
 869 005a A183     		srli	a5,a5,8
 333:cordic-math.c ****     input->r = ((long)x * CORDIC_GAIN) >> CORDIC_MATH_FRACTION_BITS;
 870              		.loc 1 333 18
 871 005c 0CC5     		sw	a1,8(a0)
 334:cordic-math.c ****     return 0;
 872              		.loc 1 334 5 is_stmt 1
 334:cordic-math.c ****     return 0;
 873              		.loc 1 334 14 is_stmt 0
 874 005e 5CC5     		sw	a5,12(a0)
 335:cordic-math.c **** }
 875              		.loc 1 335 5 is_stmt 1
 336:cordic-math.c **** 
 876              		.loc 1 336 1 is_stmt 0
 877 0060 0145     		li	a0,0
 878              	.LVL131:
 879 0062 8280     		ret
 880              	.LVL132:
 881              	.L77:
 311:cordic-math.c ****         x = cordic_abs(x);
 882              		.loc 1 311 18 discriminator 1
 883 0064 9965     		li	a1,24576
 884 0066 B306D040 		neg	a3,a3
 885              	.LVL133:
 886 006a 938505A0 		addi	a1,a1,-1536
 310:cordic-math.c ****         sumAngle = 90 * (1 << CORDIC_MATH_FRACTION_BITS);
 887              		.loc 1 310 15 discriminator 1
 888 006e E35E07F8 		bge	a4,zero,.L70
 313:cordic-math.c ****         sumAngle = 180 * (1 << CORDIC_MATH_FRACTION_BITS);
 889              		.loc 1 313 12 is_stmt 1
GAS LISTING C:\Users\elias\AppData\Local\Temp\ccM4DAnB.s 			page 34


 314:cordic-math.c ****         x = cordic_abs(x);
 890              		.loc 1 314 9
 891              	.LVL134:
 315:cordic-math.c ****         y = cordic_abs(y);
 892              		.loc 1 315 9
 893              		.loc 1 739 5
 740:cordic-math.c ****         return input;
 741:cordic-math.c ****     } else {
 742:cordic-math.c ****         return -input;
 894              		.loc 1 742 9
 316:cordic-math.c ****     }
 895              		.loc 1 316 9
 896              	.LBB38:
 897              	.LBB39:
 739:cordic-math.c ****         return input;
 898              		.loc 1 739 5
 899              		.loc 1 742 9
 900              	.LBE39:
 901              	.LBE38:
 314:cordic-math.c ****         x = cordic_abs(x);
 902              		.loc 1 314 18 is_stmt 0
 903 0072 AD65     		li	a1,45056
 904              	.LBB41:
 905              	.LBB40:
 906              		.loc 1 742 16
 907 0074 3307E040 		neg	a4,a4
 908              	.LVL135:
 909              	.LBE40:
 910              	.LBE41:
 314:cordic-math.c ****         x = cordic_abs(x);
 911              		.loc 1 314 18
 912 0078 93850540 		addi	a1,a1,1024
 913 007c 79B7     		j	.L70
 914              		.cfi_endproc
 915              	.LFE7:
 917              		.section	.text.cordic_polar_rectangular,"ax",@progbits
 918              		.align	1
 919              		.globl	cordic_polar_rectangular
 921              	cordic_polar_rectangular:
 922              	.LFB8:
 345:cordic-math.c ****     int tempX, sumAngle = 0, x = CORDIC_GAIN, y = 0;
 923              		.loc 1 345 54 is_stmt 1
 924              		.cfi_startproc
 925              	.LVL136:
 346:cordic-math.c **** 
 926              		.loc 1 346 5
 348:cordic-math.c **** 
 927              		.loc 1 348 5
 348:cordic-math.c **** 
 928              		.loc 1 348 18 is_stmt 0
 929 0000 03238500 		lw	t1,8(a0)
 930 0004 DD67     		li	a5,94208
 931 0006 93870780 		addi	a5,a5,-2048
 932 000a 3363F302 		rem	t1,t1,a5
 350:cordic-math.c ****         input->theta < (270 * (1 << CORDIC_MATH_FRACTION_BITS))) {
 933              		.loc 1 350 64
 934 000e E977     		li	a5,-24576
GAS LISTING C:\Users\elias\AppData\Local\Temp\ccM4DAnB.s 			page 35


 350:cordic-math.c ****         input->theta < (270 * (1 << CORDIC_MATH_FRACTION_BITS))) {
 935              		.loc 1 350 8
 936 0010 AD66     		li	a3,45056
 350:cordic-math.c ****         input->theta < (270 * (1 << CORDIC_MATH_FRACTION_BITS))) {
 937              		.loc 1 350 64
 938 0012 9387F75F 		addi	a5,a5,1535
 350:cordic-math.c ****         input->theta < (270 * (1 << CORDIC_MATH_FRACTION_BITS))) {
 939              		.loc 1 350 8
 940 0016 1387E63F 		addi	a4,a3,1022
 345:cordic-math.c ****     int tempX, sumAngle = 0, x = CORDIC_GAIN, y = 0;
 941              		.loc 1 345 54
 942 001a AA8E     		mv	t4,a0
 348:cordic-math.c **** 
 943              		.loc 1 348 18
 944 001c 23246500 		sw	t1,8(a0)
 350:cordic-math.c ****         input->theta < (270 * (1 << CORDIC_MATH_FRACTION_BITS))) {
 945              		.loc 1 350 5 is_stmt 1
 350:cordic-math.c ****         input->theta < (270 * (1 << CORDIC_MATH_FRACTION_BITS))) {
 946              		.loc 1 350 64 is_stmt 0
 947 0020 9A97     		add	a5,t1,a5
 350:cordic-math.c ****         input->theta < (270 * (1 << CORDIC_MATH_FRACTION_BITS))) {
 948              		.loc 1 350 8
 949 0022 6365F706 		bgtu	a5,a4,.L86
 354:cordic-math.c ****     }
 950              		.loc 1 354 11
 951 0026 130750F6 		li	a4,-155
 353:cordic-math.c ****         x = -x;
 952              		.loc 1 353 18
 953 002a 93860640 		addi	a3,a3,1024
 954              	.L81:
 955 002e B7050000 		lui	a1,%hi(.LANCHOR0+4)
 956 0032 0D65     		li	a0,12288
 957              	.LVL137:
 958 0034 93854500 		addi	a1,a1,%lo(.LANCHOR0+4)
 959 0038 130505D0 		addi	a0,a0,-768
 960 003c 8147     		li	a5,0
 961 003e 0146     		li	a2,0
 962              	.LBB42:
 356:cordic-math.c ****         tempX = x;
 963              		.loc 1 356 5
 964 0040 3D4E     		li	t3,15
 965 0042 11A8     		j	.L85
 966              	.LVL138:
 967              	.L87:
 356:cordic-math.c ****         tempX = x;
 968              		.loc 1 356 30
 969 0044 8507     		addi	a5,a5,1
 970              	.LVL139:
 360:cordic-math.c ****             y += (tempX >> i);
 971              		.loc 1 360 15
 972 0046 33071741 		sub	a4,a4,a7
 973              	.LVL140:
 361:cordic-math.c ****             sumAngle += LUT_CORDIC_ATAN[i];
 974              		.loc 1 361 13 is_stmt 1
 361:cordic-math.c ****             sumAngle += LUT_CORDIC_ATAN[i];
 975              		.loc 1 361 15 is_stmt 0
 976 004a 4296     		add	a2,a2,a6
GAS LISTING C:\Users\elias\AppData\Local\Temp\ccM4DAnB.s 			page 36


 977              	.LVL141:
 362:cordic-math.c ****         } else {
 978              		.loc 1 362 13 is_stmt 1
 362:cordic-math.c ****         } else {
 979              		.loc 1 362 22 is_stmt 0
 980 004c AA96     		add	a3,a0,a3
 981              	.LVL142:
 356:cordic-math.c ****         tempX = x;
 982              		.loc 1 356 5
 983 004e 6381C703 		beq	a5,t3,.L84
 984              	.L88:
 985 0052 8841     		lw	a0,0(a1)
 986 0054 9105     		addi	a1,a1,4
 987              	.LVL143:
 988              	.L85:
 357:cordic-math.c ****         if (input->theta > sumAngle) {
 989              		.loc 1 357 9 is_stmt 1
 358:cordic-math.c ****             /* Rotate counter clockwise */
 990              		.loc 1 358 9
 360:cordic-math.c ****             y += (tempX >> i);
 991              		.loc 1 360 13
 365:cordic-math.c ****             y -= (tempX >> i);
 992              		.loc 1 365 13
 993 0056 B358F640 		sra	a7,a2,a5
 994 005a 3358F740 		sra	a6,a4,a5
 358:cordic-math.c ****             /* Rotate counter clockwise */
 995              		.loc 1 358 12 is_stmt 0
 996 005e E3C366FE 		bgt	t1,a3,.L87
 356:cordic-math.c ****         tempX = x;
 997              		.loc 1 356 30
 998 0062 8507     		addi	a5,a5,1
 999              	.LVL144:
 367:cordic-math.c ****         }
 1000              		.loc 1 367 22
 1001 0064 898E     		sub	a3,a3,a0
 1002              	.LVL145:
 365:cordic-math.c ****             y -= (tempX >> i);
 1003              		.loc 1 365 15
 1004 0066 4697     		add	a4,a4,a7
 1005              	.LVL146:
 366:cordic-math.c ****             sumAngle -= LUT_CORDIC_ATAN[i];
 1006              		.loc 1 366 13 is_stmt 1
 366:cordic-math.c ****             sumAngle -= LUT_CORDIC_ATAN[i];
 1007              		.loc 1 366 15 is_stmt 0
 1008 0068 33060641 		sub	a2,a2,a6
 1009              	.LVL147:
 367:cordic-math.c ****         }
 1010              		.loc 1 367 13 is_stmt 1
 356:cordic-math.c ****         tempX = x;
 1011              		.loc 1 356 5 is_stmt 0
 1012 006c E393C7FF 		bne	a5,t3,.L88
 1013              	.L84:
 1014              	.LBE42:
 370:cordic-math.c ****     input->y = ((long)y * input->r) >> CORDIC_MATH_FRACTION_BITS;
 1015              		.loc 1 370 5 is_stmt 1
 370:cordic-math.c ****     input->y = ((long)y * input->r) >> CORDIC_MATH_FRACTION_BITS;
 1016              		.loc 1 370 32 is_stmt 0
GAS LISTING C:\Users\elias\AppData\Local\Temp\ccM4DAnB.s 			page 37


 1017 0070 83A7CE00 		lw	a5,12(t4)
 1018              	.LVL148:
 373:cordic-math.c **** 
 1019              		.loc 1 373 1
 1020 0074 0145     		li	a0,0
 370:cordic-math.c ****     input->y = ((long)y * input->r) >> CORDIC_MATH_FRACTION_BITS;
 1021              		.loc 1 370 25
 1022 0076 3387E702 		mul	a4,a5,a4
 1023              	.LVL149:
 371:cordic-math.c ****     return 0;
 1024              		.loc 1 371 25
 1025 007a B387C702 		mul	a5,a5,a2
 370:cordic-math.c ****     input->y = ((long)y * input->r) >> CORDIC_MATH_FRACTION_BITS;
 1026              		.loc 1 370 37
 1027 007e 2187     		srai	a4,a4,8
 370:cordic-math.c ****     input->y = ((long)y * input->r) >> CORDIC_MATH_FRACTION_BITS;
 1028              		.loc 1 370 14
 1029 0080 23A0EE00 		sw	a4,0(t4)
 371:cordic-math.c ****     return 0;
 1030              		.loc 1 371 5 is_stmt 1
 371:cordic-math.c ****     return 0;
 1031              		.loc 1 371 37 is_stmt 0
 1032 0084 A187     		srai	a5,a5,8
 371:cordic-math.c ****     return 0;
 1033              		.loc 1 371 14
 1034 0086 23A2FE00 		sw	a5,4(t4)
 372:cordic-math.c **** }
 1035              		.loc 1 372 5 is_stmt 1
 373:cordic-math.c **** 
 1036              		.loc 1 373 1 is_stmt 0
 1037 008a 8280     		ret
 1038              	.LVL150:
 1039              	.L86:
 346:cordic-math.c **** 
 1040              		.loc 1 346 30
 1041 008c 1307B009 		li	a4,155
 346:cordic-math.c **** 
 1042              		.loc 1 346 16
 1043 0090 8146     		li	a3,0
 1044 0092 71BF     		j	.L81
 1045              		.cfi_endproc
 1046              	.LFE8:
 1048              		.section	.text.cordic_sqrt,"ax",@progbits
 1049              		.align	1
 1050              		.globl	cordic_sqrt
 1052              	cordic_sqrt:
 1053              	.LFB9:
 385:cordic-math.c ****     int poweroftwo;
 1054              		.loc 1 385 32 is_stmt 1
 1055              		.cfi_startproc
 1056              	.LVL151:
 386:cordic-math.c ****     int y;
 1057              		.loc 1 386 5
 387:cordic-math.c **** 
 1058              		.loc 1 387 5
 389:cordic-math.c ****         return 0;
 1059              		.loc 1 389 5
GAS LISTING C:\Users\elias\AppData\Local\Temp\ccM4DAnB.s 			page 38


 390:cordic-math.c ****     }
 1060              		.loc 1 390 16 is_stmt 0
 1061 0000 8147     		li	a5,0
 389:cordic-math.c ****         return 0;
 1062              		.loc 1 389 8
 1063 0002 1DCD     		beq	a0,zero,.L89
 392:cordic-math.c ****         return DECIMAL_TO_FP;
 1064              		.loc 1 392 5 is_stmt 1
 392:cordic-math.c ****         return DECIMAL_TO_FP;
 1065              		.loc 1 392 8 is_stmt 0
 1066 0004 93070010 		li	a5,256
 1067 0008 630AF504 		beq	a0,a5,.L98
 395:cordic-math.c **** 
 1068              		.loc 1 395 5 is_stmt 1
 1069              	.LVL152:
 397:cordic-math.c ****         while (x <=
 1070              		.loc 1 397 5
 397:cordic-math.c ****         while (x <=
 1071              		.loc 1 397 8 is_stmt 0
 1072 000c 1307F00F 		li	a4,255
 1073 0010 636AA702 		bgtu	a0,a4,.L105
 395:cordic-math.c **** 
 1074              		.loc 1 395 16
 1075 0014 93070010 		li	a5,256
 1076              	.LVL153:
 1077              	.L91:
 400:cordic-math.c ****         }
 1078              		.loc 1 400 13 is_stmt 1
 400:cordic-math.c ****         }
 1079              		.loc 1 400 24 is_stmt 0
 1080 0018 8587     		srai	a5,a5,1
 1081              	.LVL154:
 399:cordic-math.c ****             poweroftwo >>= 1;
 1082              		.loc 1 399 35
 1083 001a 3387F702 		mul	a4,a5,a5
 399:cordic-math.c ****             poweroftwo >>= 1;
 1084              		.loc 1 399 49
 1085 001e 2187     		srai	a4,a4,8
 398:cordic-math.c ****                (((long)poweroftwo * poweroftwo) >> CORDIC_MATH_FRACTION_BITS)) {
 1086              		.loc 1 398 15
 1087 0020 E35CA7FE 		bge	a4,a0,.L91
 1088 0024 13D61740 		srai	a2,a5,1
 1089              	.LVL155:
 1090              	.L94:
 400:cordic-math.c ****         }
 1091              		.loc 1 400 24
 1092 0028 BD45     		li	a1,15
 1093              	.L96:
 1094              	.LVL156:
 1095              	.LBB43:
 411:cordic-math.c ****         if (((long)(y + poweroftwo) * (y + poweroftwo) >>
 1096              		.loc 1 411 9 is_stmt 1
 412:cordic-math.c ****              CORDIC_MATH_FRACTION_BITS) <= x) {
 1097              		.loc 1 412 9
 412:cordic-math.c ****              CORDIC_MATH_FRACTION_BITS) <= x) {
 1098              		.loc 1 412 23 is_stmt 0
 1099 002a B306F600 		add	a3,a2,a5
GAS LISTING C:\Users\elias\AppData\Local\Temp\ccM4DAnB.s 			page 39


 412:cordic-math.c ****              CORDIC_MATH_FRACTION_BITS) <= x) {
 1100              		.loc 1 412 37
 1101 002e 3387D602 		mul	a4,a3,a3
 1102 0032 FD15     		addi	a1,a1,-1
 1103              	.LVL157:
 1104 0034 0586     		srai	a2,a2,1
 1105              	.LVL158:
 412:cordic-math.c ****              CORDIC_MATH_FRACTION_BITS) <= x) {
 1106              		.loc 1 412 56
 1107 0036 2187     		srai	a4,a4,8
 412:cordic-math.c ****              CORDIC_MATH_FRACTION_BITS) <= x) {
 1108              		.loc 1 412 12
 1109 0038 6343E500 		bgt	a4,a0,.L95
 414:cordic-math.c ****         }
 1110              		.loc 1 414 15
 1111 003c B687     		mv	a5,a3
 1112              	.LVL159:
 1113              	.L95:
 410:cordic-math.c ****         poweroftwo >>= 1;
 1114              		.loc 1 410 5 discriminator 2
 1115 003e F5F5     		bne	a1,zero,.L96
 1116              	.LVL160:
 1117              	.L89:
 1118              	.LBE43:
 418:cordic-math.c **** 
 1119              		.loc 1 418 1
 1120 0040 3E85     		mv	a0,a5
 1121              	.LVL161:
 1122 0042 8280     		ret
 1123              	.LVL162:
 1124              	.L105:
 404:cordic-math.c ****                x) {
 1125              		.loc 1 404 15
 1126 0044 635FA700 		ble	a0,a4,.L106
 1127              	.LVL163:
 1128              	.L92:
 406:cordic-math.c ****         }
 1129              		.loc 1 406 13 is_stmt 1
 406:cordic-math.c ****         }
 1130              		.loc 1 406 24 is_stmt 0
 1131 0048 8607     		slli	a5,a5,1
 1132              	.LVL164:
 404:cordic-math.c ****                x) {
 1133              		.loc 1 404 35
 1134 004a 3387F702 		mul	a4,a5,a5
 404:cordic-math.c ****                x) {
 1135              		.loc 1 404 49
 1136 004e 2187     		srai	a4,a4,8
 404:cordic-math.c ****                x) {
 1137              		.loc 1 404 15
 1138 0050 E35CE5FE 		ble	a4,a0,.L92
 1139 0054 13D61740 		srai	a2,a5,1
 1140 0058 B287     		mv	a5,a2
 1141              	.LVL165:
 408:cordic-math.c ****     }
 1142              		.loc 1 408 9 is_stmt 1
 1143 005a F9B7     		j	.L94
GAS LISTING C:\Users\elias\AppData\Local\Temp\ccM4DAnB.s 			page 40


 1144              	.L98:
 393:cordic-math.c ****     }
 1145              		.loc 1 393 16 is_stmt 0
 1146 005c 93070010 		li	a5,256
 1147 0060 C5B7     		j	.L89
 1148              	.LVL166:
 1149              	.L106:
 404:cordic-math.c ****                x) {
 1150              		.loc 1 404 15
 1151 0062 93070008 		li	a5,128
 1152 0066 13060008 		li	a2,128
 1153 006a 7DBF     		j	.L94
 1154              		.cfi_endproc
 1155              	.LFE9:
 1157              		.section	.text.cordic_arctanh,"ax",@progbits
 1158              		.align	1
 1159              		.globl	cordic_arctanh
 1161              	cordic_arctanh:
 1162              	.LFB10:
 429:cordic-math.c ****     int tempX, k = 4, sumAngle = 0;
 1163              		.loc 1 429 46 is_stmt 1
 1164              		.cfi_startproc
 1165              	.LVL167:
 430:cordic-math.c **** 
 1166              		.loc 1 430 5
 432:cordic-math.c ****         tempX = x;
 1167              		.loc 1 432 5
 1168              	.LBB44:
 432:cordic-math.c ****         tempX = x;
 1169              		.loc 1 432 10
 1170              	.LBE44:
 429:cordic-math.c ****     int tempX, k = 4, sumAngle = 0;
 1171              		.loc 1 429 46 is_stmt 0
 1172 0000 2A87     		mv	a4,a0
 1173              	.LBB45:
 432:cordic-math.c ****         tempX = x;
 1174              		.loc 1 432 14
 1175 0002 8547     		li	a5,1
 1176 0004 B7060000 		lui	a3,%hi(.LANCHOR1+4)
 1177              	.LBE45:
 429:cordic-math.c ****     int tempX, k = 4, sumAngle = 0;
 1178              		.loc 1 429 46
 1179 0008 0968     		li	a6,8192
 1180 000a 93864600 		addi	a3,a3,%lo(.LANCHOR1+4)
 1181 000e 130898F7 		addi	a6,a6,-135
 430:cordic-math.c **** 
 1182              		.loc 1 430 23
 1183 0012 0145     		li	a0,0
 1184              	.LVL168:
 430:cordic-math.c **** 
 1185              		.loc 1 430 16
 1186 0014 1146     		li	a2,4
 1187              	.LBB46:
 432:cordic-math.c ****         tempX = x;
 1188              		.loc 1 432 5
 1189 0016 3D4E     		li	t3,15
 1190              	.LVL169:
GAS LISTING C:\Users\elias\AppData\Local\Temp\ccM4DAnB.s 			page 41


 433:cordic-math.c ****         if (y < 0) {
 1191              		.loc 1 433 9 is_stmt 1
 434:cordic-math.c ****             /* Rotate clockwise */
 1192              		.loc 1 434 9
 436:cordic-math.c ****             y += (tempX >> i);
 1193              		.loc 1 436 13
 441:cordic-math.c ****             y -= (tempX >> i);
 1194              		.loc 1 441 13
 1195 0018 B358F740 		sra	a7,a4,a5
 1196 001c 33D3F540 		sra	t1,a1,a5
 434:cordic-math.c ****             /* Rotate clockwise */
 1197              		.loc 1 434 12 is_stmt 0
 1198 0020 63450702 		blt	a4,zero,.L114
 1199              	.L108:
 442:cordic-math.c ****             sumAngle += LUT_CORDIC_ATANH[i - 1];
 1200              		.loc 1 442 15
 1201 0024 33076740 		sub	a4,a4,t1
 1202              	.LVL170:
 441:cordic-math.c ****             y -= (tempX >> i);
 1203              		.loc 1 441 15
 1204 0028 B3851541 		sub	a1,a1,a7
 1205              	.LVL171:
 442:cordic-math.c ****             sumAngle += LUT_CORDIC_ATANH[i - 1];
 1206              		.loc 1 442 13 is_stmt 1
 443:cordic-math.c ****         }
 1207              		.loc 1 443 13
 443:cordic-math.c ****         }
 1208              		.loc 1 443 22 is_stmt 0
 1209 002c 4295     		add	a0,a0,a6
 1210              	.LVL172:
 445:cordic-math.c ****             k = (3 * k) + 1;
 1211              		.loc 1 445 9 is_stmt 1
 445:cordic-math.c ****             k = (3 * k) + 1;
 1212              		.loc 1 445 12 is_stmt 0
 1213 002e 6304F602 		beq	a2,a5,.L115
 1214              	.L110:
 432:cordic-math.c ****         tempX = x;
 1215              		.loc 1 432 47 discriminator 2
 1216 0032 8507     		addi	a5,a5,1
 1217              	.LVL173:
 432:cordic-math.c ****         tempX = x;
 1218              		.loc 1 432 5 discriminator 2
 1219 0034 6383C705 		beq	a5,t3,.L107
 1220              	.L117:
 1221 0038 03A80600 		lw	a6,0(a3)
 1222 003c B358F740 		sra	a7,a4,a5
 1223 0040 9106     		addi	a3,a3,4
 433:cordic-math.c ****         if (y < 0) {
 1224              		.loc 1 433 9 is_stmt 1
 1225              	.LVL174:
 434:cordic-math.c ****             /* Rotate clockwise */
 1226              		.loc 1 434 9
 436:cordic-math.c ****             y += (tempX >> i);
 1227              		.loc 1 436 13
 441:cordic-math.c ****             y -= (tempX >> i);
 1228              		.loc 1 441 13
 1229 0042 33D3F540 		sra	t1,a1,a5
GAS LISTING C:\Users\elias\AppData\Local\Temp\ccM4DAnB.s 			page 42


 434:cordic-math.c ****             /* Rotate clockwise */
 1230              		.loc 1 434 12 is_stmt 0
 1231 0046 E35F07FC 		bge	a4,zero,.L108
 1232              	.L114:
 436:cordic-math.c ****             y += (tempX >> i);
 1233              		.loc 1 436 15
 1234 004a C695     		add	a1,a1,a7
 1235              	.LVL175:
 437:cordic-math.c ****             sumAngle -= LUT_CORDIC_ATANH[i - 1];
 1236              		.loc 1 437 13 is_stmt 1
 437:cordic-math.c ****             sumAngle -= LUT_CORDIC_ATANH[i - 1];
 1237              		.loc 1 437 15 is_stmt 0
 1238 004c 1A97     		add	a4,a4,t1
 1239              	.LVL176:
 438:cordic-math.c ****         } else {
 1240              		.loc 1 438 13 is_stmt 1
 438:cordic-math.c ****         } else {
 1241              		.loc 1 438 22 is_stmt 0
 1242 004e 33050541 		sub	a0,a0,a6
 1243              	.LVL177:
 445:cordic-math.c ****             k = (3 * k) + 1;
 1244              		.loc 1 445 9 is_stmt 1
 445:cordic-math.c ****             k = (3 * k) + 1;
 1245              		.loc 1 445 12 is_stmt 0
 1246 0052 E310F6FE 		bne	a2,a5,.L110
 1247              	.L115:
 446:cordic-math.c ****             tempX = x;
 1248              		.loc 1 446 13 is_stmt 1
 450:cordic-math.c ****                 y += (tempX >> i);
 1249              		.loc 1 450 17
 455:cordic-math.c ****                 y -= (tempX >> i);
 1250              		.loc 1 455 17
 446:cordic-math.c ****             tempX = x;
 1251              		.loc 1 446 20 is_stmt 0
 1252 0056 93181600 		slli	a7,a2,1
 1253 005a 4696     		add	a2,a7,a2
 1254              	.LVL178:
 1255 005c 3353F740 		sra	t1,a4,a5
 1256 0060 B3D8F540 		sra	a7,a1,a5
 446:cordic-math.c ****             tempX = x;
 1257              		.loc 1 446 15
 1258 0064 0506     		addi	a2,a2,1
 1259              	.LVL179:
 447:cordic-math.c ****             if (y < 0) {
 1260              		.loc 1 447 13 is_stmt 1
 448:cordic-math.c ****                 /* Rotate clockwise */
 1261              		.loc 1 448 13
 448:cordic-math.c ****                 /* Rotate clockwise */
 1262              		.loc 1 448 16 is_stmt 0
 1263 0066 634B0700 		blt	a4,zero,.L116
 432:cordic-math.c ****         tempX = x;
 1264              		.loc 1 432 47
 1265 006a 8507     		addi	a5,a5,1
 1266              	.LVL180:
 457:cordic-math.c ****             }
 1267              		.loc 1 457 26
 1268 006c 4295     		add	a0,a0,a6
GAS LISTING C:\Users\elias\AppData\Local\Temp\ccM4DAnB.s 			page 43


 1269              	.LVL181:
 455:cordic-math.c ****                 y -= (tempX >> i);
 1270              		.loc 1 455 19
 1271 006e B3856540 		sub	a1,a1,t1
 1272              	.LVL182:
 456:cordic-math.c ****                 sumAngle += LUT_CORDIC_ATANH[i - 1];
 1273              		.loc 1 456 17 is_stmt 1
 456:cordic-math.c ****                 sumAngle += LUT_CORDIC_ATANH[i - 1];
 1274              		.loc 1 456 19 is_stmt 0
 1275 0072 33071741 		sub	a4,a4,a7
 1276              	.LVL183:
 457:cordic-math.c ****             }
 1277              		.loc 1 457 17 is_stmt 1
 432:cordic-math.c ****         tempX = x;
 1278              		.loc 1 432 5 is_stmt 0
 1279 0076 E391C7FD 		bne	a5,t3,.L117
 1280              	.L107:
 1281              	.LBE46:
 462:cordic-math.c **** 
 1282              		.loc 1 462 1
 1283 007a 8280     		ret
 1284              	.LVL184:
 1285              	.L116:
 1286              	.LBB47:
 450:cordic-math.c ****                 y += (tempX >> i);
 1287              		.loc 1 450 19
 1288 007c 9A95     		add	a1,a1,t1
 1289              	.LVL185:
 451:cordic-math.c ****                 sumAngle -= LUT_CORDIC_ATANH[i - 1];
 1290              		.loc 1 451 17 is_stmt 1
 451:cordic-math.c ****                 sumAngle -= LUT_CORDIC_ATANH[i - 1];
 1291              		.loc 1 451 19 is_stmt 0
 1292 007e 4697     		add	a4,a4,a7
 1293              	.LVL186:
 452:cordic-math.c ****             } else {
 1294              		.loc 1 452 17 is_stmt 1
 452:cordic-math.c ****             } else {
 1295              		.loc 1 452 26 is_stmt 0
 1296 0080 33050541 		sub	a0,a0,a6
 1297              	.LVL187:
 1298 0084 7DB7     		j	.L110
 1299              	.LBE47:
 1300              		.cfi_endproc
 1301              	.LFE10:
 1303              		.section	.text.cordic_ln,"ax",@progbits
 1304              		.align	1
 1305              		.globl	cordic_ln
 1307              	cordic_ln:
 1308              	.LFB11:
 472:cordic-math.c ****     int k = 0;
 1309              		.loc 1 472 34 is_stmt 1
 1310              		.cfi_startproc
 1311              	.LVL188:
 473:cordic-math.c ****     long calculate = input;
 1312              		.loc 1 473 5
 474:cordic-math.c **** 
 1313              		.loc 1 474 5
GAS LISTING C:\Users\elias\AppData\Local\Temp\ccM4DAnB.s 			page 44


 476:cordic-math.c ****         calculate <<= CORDIC_MATH_FRACTION_BITS;
 1314              		.loc 1 476 5
 472:cordic-math.c ****     int k = 0;
 1315              		.loc 1 472 34 is_stmt 0
 1316 0000 4111     		addi	sp,sp,-16
 1317              	.LCFI0:
 1318              		.cfi_def_cfa_offset 16
 1319 0002 22C4     		sw	s0,8(sp)
 1320 0004 06C6     		sw	ra,12(sp)
 1321              		.cfi_offset 8, -8
 1322              		.cfi_offset 1, -4
 476:cordic-math.c ****         calculate <<= CORDIC_MATH_FRACTION_BITS;
 1323              		.loc 1 476 11
 1324 0006 9307802B 		li	a5,696
 473:cordic-math.c ****     long calculate = input;
 1325              		.loc 1 473 9
 1326 000a 0144     		li	s0,0
 476:cordic-math.c ****         calculate <<= CORDIC_MATH_FRACTION_BITS;
 1327              		.loc 1 476 11
 1328 000c 63F0A702 		bleu	a0,a5,.L119
 1329 0010 37670700 		li	a4,483328
 479:cordic-math.c ****         k += DECIMAL_TO_FP;
 1330              		.loc 1 479 19
 1331 0014 9306802B 		li	a3,696
 476:cordic-math.c ****         calculate <<= CORDIC_MATH_FRACTION_BITS;
 1332              		.loc 1 476 11
 1333 0018 1307776F 		addi	a4,a4,1783
 1334              	.LVL189:
 1335              	.L120:
 477:cordic-math.c ****         // printf("calculate : %ld\n", calculate);
 1336              		.loc 1 477 9 is_stmt 1
 479:cordic-math.c ****         k += DECIMAL_TO_FP;
 1337              		.loc 1 479 9
 477:cordic-math.c ****         // printf("calculate : %ld\n", calculate);
 1338              		.loc 1 477 19 is_stmt 0
 1339 001c 93178500 		slli	a5,a0,8
 1340              	.LVL190:
 479:cordic-math.c ****         k += DECIMAL_TO_FP;
 1341              		.loc 1 479 19
 1342 0020 33D5D702 		divu	a0,a5,a3
 1343              	.LVL191:
 480:cordic-math.c ****     }
 1344              		.loc 1 480 9 is_stmt 1
 1345 0024 13040410 		addi	s0,s0,256
 1346              	.LVL192:
 476:cordic-math.c ****         calculate <<= CORDIC_MATH_FRACTION_BITS;
 1347              		.loc 1 476 11 is_stmt 0
 1348 0028 E36AF7FE 		bgtu	a5,a4,.L120
 1349              	.LVL193:
 1350              	.L119:
 483:cordic-math.c ****     int x = calculate + DECIMAL_TO_FP;
 1351              		.loc 1 483 5 is_stmt 1
 484:cordic-math.c **** 
 1352              		.loc 1 484 5
 486:cordic-math.c **** }
 1353              		.loc 1 486 5
 486:cordic-math.c **** }
GAS LISTING C:\Users\elias\AppData\Local\Temp\ccM4DAnB.s 			page 45


 1354              		.loc 1 486 24 is_stmt 0
 1355 002c 93050510 		addi	a1,a0,256
 1356              	.LVL194:
 1357 0030 130505F0 		addi	a0,a0,-256
 1358              	.LVL195:
 1359 0034 97000000 		call	cordic_arctanh
 1359      E7800000 
 1360              	.LVL196:
 1361              	.LBB48:
 1362              	.LBB49:
 743:cordic-math.c ****     }
 744:cordic-math.c **** }
 745:cordic-math.c **** 
 746:cordic-math.c **** /**
 747:cordic-math.c ****  * @brief Calculation if the input is even
 748:cordic-math.c ****  *
 749:cordic-math.c ****  * @param input int
 750:cordic-math.c ****  *
 751:cordic-math.c ****  * @return 32 bit int
 752:cordic-math.c ****  */
 753:cordic-math.c **** int32_t isEven(int32_t input) {
 754:cordic-math.c ****     if (input % 2) return 0;
 755:cordic-math.c ****     return 1;
 756:cordic-math.c **** }
 757:cordic-math.c **** 
 758:cordic-math.c **** /**
 759:cordic-math.c ****  * @brief Calculation if the input is odd
 760:cordic-math.c ****  *
 761:cordic-math.c ****  * @param input int
 762:cordic-math.c ****  *
 763:cordic-math.c ****  * @return 32 bit int
 764:cordic-math.c ****  */
 765:cordic-math.c **** int32_t isOdd(int32_t input) {
 766:cordic-math.c ****     if (input % 2) return 1;
 767:cordic-math.c ****     return 0;
 768:cordic-math.c **** }
 769:cordic-math.c **** 
 770:cordic-math.c **** /**
 771:cordic-math.c ****  * @brief Converts radians to degrees
 772:cordic-math.c ****  *
 773:cordic-math.c ****  * @param input fixedpoint according to CORDIC_MATH_FRACTION_BITS in radians
 774:cordic-math.c ****  *
 775:cordic-math.c ****  * @return 32 bit int fixedpoint according to CORDIC_MATH_FRACTION_BITS in degrees
 776:cordic-math.c ****  */
 777:cordic-math.c **** int32_t to_degree(int32_t input) {
 778:cordic-math.c ****     return ((long)input * ONE_EIGHTY_DIV_PI >> CORDIC_MATH_FRACTION_BITS);
 779:cordic-math.c **** }
 780:cordic-math.c **** 
 781:cordic-math.c **** /**
 782:cordic-math.c ****  * @brief Converts degrees to radians
 783:cordic-math.c ****  *
 784:cordic-math.c ****  * @param input fixedpoint according to CORDIC_MATH_FRACTION_BITS in degrees
 785:cordic-math.c ****  *
 786:cordic-math.c ****  * @return 32 bit int fixedpoint according to CORDIC_MATH_FRACTION_BITS in degrees
 787:cordic-math.c ****  */
 788:cordic-math.c **** int32_t to_radians(int32_t input) {
 789:cordic-math.c ****     return (((long)input << CORDIC_MATH_FRACTION_BITS) / ONE_EIGHTY_DIV_PI);
GAS LISTING C:\Users\elias\AppData\Local\Temp\ccM4DAnB.s 			page 46


 1363              		.loc 1 789 5 is_stmt 1
 1364              		.loc 1 789 56 is_stmt 0
 1365 003c 9167     		li	a5,16384
 1366              		.loc 1 789 26
 1367 003e 2605     		slli	a0,a0,9
 1368              		.loc 1 789 56
 1369 0040 9387C794 		addi	a5,a5,-1716
 1370              	.LBE49:
 1371              	.LBE48:
 487:cordic-math.c **** 
 1372              		.loc 1 487 1
 1373 0044 B240     		lw	ra,12(sp)
 1374              		.cfi_restore 1
 1375              	.LBB51:
 1376              	.LBB50:
 1377              		.loc 1 789 56
 1378 0046 3355F502 		divu	a0,a0,a5
 1379              	.LBE50:
 1380              	.LBE51:
 487:cordic-math.c **** 
 1381              		.loc 1 487 1
 1382 004a 2295     		add	a0,a0,s0
 1383 004c 2244     		lw	s0,8(sp)
 1384              		.cfi_restore 8
 1385 004e 4101     		addi	sp,sp,16
 1386              	.LCFI1:
 1387              		.cfi_def_cfa_offset 0
 1388 0050 8280     		jr	ra
 1389              		.cfi_endproc
 1390              	.LFE11:
 1392              		.section	.text.cordic_arccosh,"ax",@progbits
 1393              		.align	1
 1394              		.globl	cordic_arccosh
 1396              	cordic_arccosh:
 1397              	.LFB12:
 497:cordic-math.c ****     int tempX, k = 4, sumAngle = 0, y = DECIMAL_TO_FP, xt = x;
 1398              		.loc 1 497 35 is_stmt 1
 1399              		.cfi_startproc
 1400              	.LVL197:
 498:cordic-math.c **** 
 1401              		.loc 1 498 5
 500:cordic-math.c ****         tempX = x;
 1402              		.loc 1 500 5
 1403              	.LBB52:
 500:cordic-math.c ****         tempX = x;
 1404              		.loc 1 500 10
 1405              	.LBE52:
 497:cordic-math.c ****     int tempX, k = 4, sumAngle = 0, y = DECIMAL_TO_FP, xt = x;
 1406              		.loc 1 497 35 is_stmt 0
 1407 0000 4111     		addi	sp,sp,-16
 1408              	.LCFI2:
 1409              		.cfi_def_cfa_offset 16
 1410 0002 06C6     		sw	ra,12(sp)
 1411              		.cfi_offset 1, -4
 497:cordic-math.c ****     int tempX, k = 4, sumAngle = 0, y = DECIMAL_TO_FP, xt = x;
 1412              		.loc 1 497 35
 1413 0004 AA86     		mv	a3,a0
GAS LISTING C:\Users\elias\AppData\Local\Temp\ccM4DAnB.s 			page 47


 1414              	.LBB53:
 500:cordic-math.c ****         tempX = x;
 1415              		.loc 1 500 14
 1416 0006 8547     		li	a5,1
 1417              	.LBE53:
 498:cordic-math.c **** 
 1418              		.loc 1 498 37
 1419 0008 13070010 		li	a4,256
 498:cordic-math.c **** 
 1420              		.loc 1 498 16
 1421 000c 1146     		li	a2,4
 1422              	.LBB54:
 500:cordic-math.c ****         tempX = x;
 1423              		.loc 1 500 5
 1424 000e BD48     		li	a7,15
 1425              	.LVL198:
 1426              	.L129:
 501:cordic-math.c ****         if (y < 0) {
 1427              		.loc 1 501 9 is_stmt 1
 502:cordic-math.c ****             /* Rotate clockwise */
 1428              		.loc 1 502 9
 504:cordic-math.c ****             y += (tempX >> i);
 1429              		.loc 1 504 13
 509:cordic-math.c ****             y -= (tempX >> i);
 1430              		.loc 1 509 13
 1431 0010 B355F740 		sra	a1,a4,a5
 1432 0014 33D8F640 		sra	a6,a3,a5
 502:cordic-math.c ****             /* Rotate clockwise */
 1433              		.loc 1 502 12 is_stmt 0
 1434 0018 634D0702 		blt	a4,zero,.L132
 510:cordic-math.c ****             sumAngle += LUT_CORDIC_ATANH[i - 1];
 1435              		.loc 1 510 15
 1436 001c 33070741 		sub	a4,a4,a6
 1437              	.LVL199:
 509:cordic-math.c ****             y -= (tempX >> i);
 1438              		.loc 1 509 15
 1439 0020 8D8E     		sub	a3,a3,a1
 1440              	.LVL200:
 510:cordic-math.c ****             sumAngle += LUT_CORDIC_ATANH[i - 1];
 1441              		.loc 1 510 13 is_stmt 1
 511:cordic-math.c ****         }
 1442              		.loc 1 511 13
 513:cordic-math.c ****             k = (3 * k) + 1;
 1443              		.loc 1 513 9
 513:cordic-math.c ****             k = (3 * k) + 1;
 1444              		.loc 1 513 12 is_stmt 0
 1445 0022 630CF602 		beq	a2,a5,.L133
 1446              	.L127:
 500:cordic-math.c ****         tempX = x;
 1447              		.loc 1 500 47 discriminator 2
 1448 0026 8507     		addi	a5,a5,1
 1449              	.LVL201:
 500:cordic-math.c ****         tempX = x;
 1450              		.loc 1 500 5 discriminator 2
 1451 0028 E39417FF 		bne	a5,a7,.L129
 1452              	.LBE54:
 530:cordic-math.c ****                                 CORDIC_GAIN_HYPERBOLIC_VECTOR) +
GAS LISTING C:\Users\elias\AppData\Local\Temp\ccM4DAnB.s 			page 48


 1453              		.loc 1 530 5 is_stmt 1
 530:cordic-math.c ****                                 CORDIC_GAIN_HYPERBOLIC_VECTOR) +
 1454              		.loc 1 530 72 is_stmt 0
 1455 002c 9307400D 		li	a5,212
 1456              	.LVL202:
 530:cordic-math.c ****                                 CORDIC_GAIN_HYPERBOLIC_VECTOR) +
 1457              		.loc 1 530 42
 1458 0030 A206     		slli	a3,a3,8
 1459              	.LVL203:
 530:cordic-math.c ****                                 CORDIC_GAIN_HYPERBOLIC_VECTOR) +
 1460              		.loc 1 530 72
 1461 0032 B3D6F602 		divu	a3,a3,a5
 530:cordic-math.c ****                                 CORDIC_GAIN_HYPERBOLIC_VECTOR) +
 1462              		.loc 1 530 12
 1463 0036 3695     		add	a0,a3,a0
 1464              	.LVL204:
 1465 0038 97000000 		call	cordic_ln
 1465      E7800000 
 1466              	.LVL205:
 1467              	.LBB55:
 1468              	.LBB56:
 778:cordic-math.c **** }
 1469              		.loc 1 778 5 is_stmt 1
 778:cordic-math.c **** }
 1470              		.loc 1 778 25 is_stmt 0
 1471 0040 9167     		li	a5,16384
 1472 0042 9387C794 		addi	a5,a5,-1716
 1473 0046 3305F502 		mul	a0,a0,a5
 1474              	.LBE56:
 1475              	.LBE55:
 533:cordic-math.c **** 
 1476              		.loc 1 533 1
 1477 004a B240     		lw	ra,12(sp)
 1478              		.cfi_remember_state
 1479              		.cfi_restore 1
 1480 004c 4101     		addi	sp,sp,16
 1481              	.LCFI3:
 1482              		.cfi_def_cfa_offset 0
 1483 004e 2181     		srli	a0,a0,8
 1484 0050 8280     		jr	ra
 1485              	.LVL206:
 1486              	.L132:
 1487              	.LCFI4:
 1488              		.cfi_restore_state
 1489              	.LBB57:
 504:cordic-math.c ****             y += (tempX >> i);
 1490              		.loc 1 504 15
 1491 0052 AE96     		add	a3,a3,a1
 1492              	.LVL207:
 505:cordic-math.c ****             sumAngle -= LUT_CORDIC_ATANH[i - 1];
 1493              		.loc 1 505 13 is_stmt 1
 505:cordic-math.c ****             sumAngle -= LUT_CORDIC_ATANH[i - 1];
 1494              		.loc 1 505 15 is_stmt 0
 1495 0054 4297     		add	a4,a4,a6
 1496              	.LVL208:
 506:cordic-math.c ****         } else {
 1497              		.loc 1 506 13 is_stmt 1
GAS LISTING C:\Users\elias\AppData\Local\Temp\ccM4DAnB.s 			page 49


 513:cordic-math.c ****             k = (3 * k) + 1;
 1498              		.loc 1 513 9
 513:cordic-math.c ****             k = (3 * k) + 1;
 1499              		.loc 1 513 12 is_stmt 0
 1500 0056 E318F6FC 		bne	a2,a5,.L127
 1501              	.L133:
 514:cordic-math.c ****             tempX = x;
 1502              		.loc 1 514 13 is_stmt 1
 518:cordic-math.c ****                 y += (tempX >> i);
 1503              		.loc 1 518 17
 523:cordic-math.c ****                 y -= (tempX >> i);
 1504              		.loc 1 523 17
 514:cordic-math.c ****             tempX = x;
 1505              		.loc 1 514 20 is_stmt 0
 1506 005a 93151600 		slli	a1,a2,1
 1507 005e 2E96     		add	a2,a1,a2
 1508              	.LVL209:
 1509 0060 3358F740 		sra	a6,a4,a5
 1510 0064 B3D5F640 		sra	a1,a3,a5
 514:cordic-math.c ****             tempX = x;
 1511              		.loc 1 514 15
 1512 0068 0506     		addi	a2,a2,1
 1513              	.LVL210:
 515:cordic-math.c ****             if (y < 0) {
 1514              		.loc 1 515 13 is_stmt 1
 516:cordic-math.c ****                 /* Rotate clockwise */
 1515              		.loc 1 516 13
 516:cordic-math.c ****                 /* Rotate clockwise */
 1516              		.loc 1 516 16 is_stmt 0
 1517 006a 63460700 		blt	a4,zero,.L134
 523:cordic-math.c ****                 y -= (tempX >> i);
 1518              		.loc 1 523 19
 1519 006e B3860641 		sub	a3,a3,a6
 1520              	.LVL211:
 524:cordic-math.c ****                 sumAngle += LUT_CORDIC_ATANH[i - 1];
 1521              		.loc 1 524 17 is_stmt 1
 524:cordic-math.c ****                 sumAngle += LUT_CORDIC_ATANH[i - 1];
 1522              		.loc 1 524 19 is_stmt 0
 1523 0072 0D8F     		sub	a4,a4,a1
 1524              	.LVL212:
 525:cordic-math.c ****             }
 1525              		.loc 1 525 17 is_stmt 1
 1526 0074 4DBF     		j	.L127
 1527              	.LVL213:
 1528              	.L134:
 518:cordic-math.c ****                 y += (tempX >> i);
 1529              		.loc 1 518 19 is_stmt 0
 1530 0076 C296     		add	a3,a3,a6
 1531              	.LVL214:
 519:cordic-math.c ****                 sumAngle -= LUT_CORDIC_ATANH[i - 1];
 1532              		.loc 1 519 17 is_stmt 1
 519:cordic-math.c ****                 sumAngle -= LUT_CORDIC_ATANH[i - 1];
 1533              		.loc 1 519 19 is_stmt 0
 1534 0078 2E97     		add	a4,a4,a1
 1535              	.LVL215:
 520:cordic-math.c ****             } else {
 1536              		.loc 1 520 17 is_stmt 1
GAS LISTING C:\Users\elias\AppData\Local\Temp\ccM4DAnB.s 			page 50


 1537 007a 75B7     		j	.L127
 1538              	.LBE57:
 1539              		.cfi_endproc
 1540              	.LFE12:
 1542              		.section	.text.cordic_arcsinh,"ax",@progbits
 1543              		.align	1
 1544              		.globl	cordic_arcsinh
 1546              	cordic_arcsinh:
 1547              	.LFB13:
 543:cordic-math.c ****     int tempX, k = 4, sumAngle = 0, x = DECIMAL_TO_FP, yt = y;
 1548              		.loc 1 543 35
 1549              		.cfi_startproc
 1550              	.LVL216:
 544:cordic-math.c **** 
 1551              		.loc 1 544 5
 546:cordic-math.c ****         tempX = x;
 1552              		.loc 1 546 5
 1553              	.LBB58:
 546:cordic-math.c ****         tempX = x;
 1554              		.loc 1 546 10
 1555              	.LBE58:
 543:cordic-math.c ****     int tempX, k = 4, sumAngle = 0, x = DECIMAL_TO_FP, yt = y;
 1556              		.loc 1 543 35 is_stmt 0
 1557 0000 4111     		addi	sp,sp,-16
 1558              	.LCFI5:
 1559              		.cfi_def_cfa_offset 16
 1560 0002 06C6     		sw	ra,12(sp)
 1561              		.cfi_offset 1, -4
 543:cordic-math.c ****     int tempX, k = 4, sumAngle = 0, x = DECIMAL_TO_FP, yt = y;
 1562              		.loc 1 543 35
 1563 0004 2A87     		mv	a4,a0
 1564              	.LBB59:
 546:cordic-math.c ****         tempX = x;
 1565              		.loc 1 546 14
 1566 0006 8147     		li	a5,0
 1567              	.LBE59:
 544:cordic-math.c **** 
 1568              		.loc 1 544 37
 1569 0008 93060010 		li	a3,256
 1570              	.LBB60:
 546:cordic-math.c ****         tempX = x;
 1571              		.loc 1 546 5
 1572 000c 3D48     		li	a6,15
 1573 000e 31A0     		j	.L138
 1574              	.LVL217:
 1575              	.L136:
 546:cordic-math.c ****         tempX = x;
 1576              		.loc 1 546 47
 1577 0010 8507     		addi	a5,a5,1
 1578              	.LVL218:
 555:cordic-math.c ****             y -= (tempX >> i);
 1579              		.loc 1 555 15
 1580 0012 AE96     		add	a3,a3,a1
 1581              	.LVL219:
 556:cordic-math.c ****             sumAngle += LUT_CORDIC_ATAN[i];
 1582              		.loc 1 556 13 is_stmt 1
 556:cordic-math.c ****             sumAngle += LUT_CORDIC_ATAN[i];
GAS LISTING C:\Users\elias\AppData\Local\Temp\ccM4DAnB.s 			page 51


 1583              		.loc 1 556 15 is_stmt 0
 1584 0014 118F     		sub	a4,a4,a2
 1585              	.LVL220:
 557:cordic-math.c ****         }
 1586              		.loc 1 557 13 is_stmt 1
 546:cordic-math.c ****         tempX = x;
 1587              		.loc 1 546 5 is_stmt 0
 1588 0016 638D0701 		beq	a5,a6,.L141
 1589              	.LVL221:
 1590              	.L138:
 547:cordic-math.c ****         if (y < 0) {
 1591              		.loc 1 547 9 is_stmt 1
 548:cordic-math.c ****             /* Rotate clockwise */
 1592              		.loc 1 548 9
 550:cordic-math.c ****             y += (tempX >> i);
 1593              		.loc 1 550 13
 555:cordic-math.c ****             y -= (tempX >> i);
 1594              		.loc 1 555 13
 1595 001a B355F740 		sra	a1,a4,a5
 1596 001e 33D6F640 		sra	a2,a3,a5
 548:cordic-math.c ****             /* Rotate clockwise */
 1597              		.loc 1 548 12 is_stmt 0
 1598 0022 E35707FE 		bge	a4,zero,.L136
 546:cordic-math.c ****         tempX = x;
 1599              		.loc 1 546 47
 1600 0026 8507     		addi	a5,a5,1
 1601              	.LVL222:
 550:cordic-math.c ****             y += (tempX >> i);
 1602              		.loc 1 550 15
 1603 0028 8D8E     		sub	a3,a3,a1
 1604              	.LVL223:
 551:cordic-math.c ****             sumAngle -= LUT_CORDIC_ATAN[i];
 1605              		.loc 1 551 13 is_stmt 1
 551:cordic-math.c ****             sumAngle -= LUT_CORDIC_ATAN[i];
 1606              		.loc 1 551 15 is_stmt 0
 1607 002a 3297     		add	a4,a4,a2
 1608              	.LVL224:
 552:cordic-math.c ****         } else {
 1609              		.loc 1 552 13 is_stmt 1
 546:cordic-math.c ****         tempX = x;
 1610              		.loc 1 546 5 is_stmt 0
 1611 002c E39707FF 		bne	a5,a6,.L138
 1612              	.L141:
 1613              	.LBE60:
 561:cordic-math.c ****                                 CORDIC_GAIN_HYPERBOLIC_CIRCULAR) +
 1614              		.loc 1 561 5 is_stmt 1
 561:cordic-math.c ****                                 CORDIC_GAIN_HYPERBOLIC_CIRCULAR) +
 1615              		.loc 1 561 72 is_stmt 0
 1616 0030 9307601A 		li	a5,422
 1617              	.LVL225:
 561:cordic-math.c ****                                 CORDIC_GAIN_HYPERBOLIC_CIRCULAR) +
 1618              		.loc 1 561 42
 1619 0034 A206     		slli	a3,a3,8
 1620              	.LVL226:
 561:cordic-math.c ****                                 CORDIC_GAIN_HYPERBOLIC_CIRCULAR) +
 1621              		.loc 1 561 72
 1622 0036 B3D6F602 		divu	a3,a3,a5
GAS LISTING C:\Users\elias\AppData\Local\Temp\ccM4DAnB.s 			page 52


 561:cordic-math.c ****                                 CORDIC_GAIN_HYPERBOLIC_CIRCULAR) +
 1623              		.loc 1 561 12
 1624 003a 3695     		add	a0,a3,a0
 1625              	.LVL227:
 1626 003c 97000000 		call	cordic_ln
 1626      E7800000 
 1627              	.LVL228:
 1628              	.LBB61:
 1629              	.LBB62:
 778:cordic-math.c **** }
 1630              		.loc 1 778 5 is_stmt 1
 778:cordic-math.c **** }
 1631              		.loc 1 778 25 is_stmt 0
 1632 0044 9167     		li	a5,16384
 1633 0046 9387C794 		addi	a5,a5,-1716
 1634 004a 3305F502 		mul	a0,a0,a5
 1635              	.LBE62:
 1636              	.LBE61:
 564:cordic-math.c **** 
 1637              		.loc 1 564 1
 1638 004e B240     		lw	ra,12(sp)
 1639              		.cfi_restore 1
 1640 0050 4101     		addi	sp,sp,16
 1641              	.LCFI6:
 1642              		.cfi_def_cfa_offset 0
 1643 0052 2181     		srli	a0,a0,8
 1644 0054 8280     		jr	ra
 1645              		.cfi_endproc
 1646              	.LFE13:
 1648              		.section	.text.cordic_sinh,"ax",@progbits
 1649              		.align	1
 1650              		.globl	cordic_sinh
 1652              	cordic_sinh:
 1653              	.LFB14:
 574:cordic-math.c ****     int tempX, k = 4, sumAngle = theta, y = 0,
 1654              		.loc 1 574 36 is_stmt 1
 1655              		.cfi_startproc
 1656              	.LVL229:
 575:cordic-math.c ****                x = ONE_DIV_CORDIC_GAIN_HYPERBOLIC;
 1657              		.loc 1 575 5
 577:cordic-math.c ****         tempX = x;
 1658              		.loc 1 577 5
 1659              	.LBB63:
 577:cordic-math.c ****         tempX = x;
 1660              		.loc 1 577 10
 577:cordic-math.c ****         tempX = x;
 1661              		.loc 1 577 14 is_stmt 0
 1662 0000 8547     		li	a5,1
 1663 0002 37060000 		lui	a2,%hi(.LANCHOR1+4)
 1664              	.LBE63:
 574:cordic-math.c ****     int tempX, k = 4, sumAngle = theta, y = 0,
 1665              		.loc 1 574 36
 1666 0006 0968     		li	a6,8192
 576:cordic-math.c ****     for (int i = 1; i < CORDIC_SPEED_FACTOR; i++) {
 1667              		.loc 1 576 16
 1668 0008 93065013 		li	a3,309
 575:cordic-math.c ****                x = ONE_DIV_CORDIC_GAIN_HYPERBOLIC;
GAS LISTING C:\Users\elias\AppData\Local\Temp\ccM4DAnB.s 			page 53


 1669              		.loc 1 575 41
 1670 000c 0147     		li	a4,0
 1671 000e 13064600 		addi	a2,a2,%lo(.LANCHOR1+4)
 574:cordic-math.c ****     int tempX, k = 4, sumAngle = theta, y = 0,
 1672              		.loc 1 574 36
 1673 0012 130898F7 		addi	a6,a6,-135
 575:cordic-math.c ****                x = ONE_DIV_CORDIC_GAIN_HYPERBOLIC;
 1674              		.loc 1 575 16
 1675 0016 9145     		li	a1,4
 1676              	.LBB64:
 577:cordic-math.c ****         tempX = x;
 1677              		.loc 1 577 5
 1678 0018 3D4E     		li	t3,15
 1679              	.LVL230:
 578:cordic-math.c ****         if (sumAngle > 0) {
 1680              		.loc 1 578 9 is_stmt 1
 579:cordic-math.c ****             /* Rotate clockwise */
 1681              		.loc 1 579 9
 581:cordic-math.c ****             y += (tempX >> i);
 1682              		.loc 1 581 13
 586:cordic-math.c ****             y -= (tempX >> i);
 1683              		.loc 1 586 13
 1684 001a 3353F740 		sra	t1,a4,a5
 1685 001e B3D8F640 		sra	a7,a3,a5
 579:cordic-math.c ****             /* Rotate clockwise */
 1686              		.loc 1 579 12 is_stmt 0
 1687 0022 6354A002 		ble	a0,zero,.L143
 1688              	.LVL231:
 1689              	.L150:
 581:cordic-math.c ****             y += (tempX >> i);
 1690              		.loc 1 581 15
 1691 0026 9A96     		add	a3,a3,t1
 1692              	.LVL232:
 582:cordic-math.c ****             sumAngle -= LUT_CORDIC_ATANH[i - 1];
 1693              		.loc 1 582 13 is_stmt 1
 582:cordic-math.c ****             sumAngle -= LUT_CORDIC_ATANH[i - 1];
 1694              		.loc 1 582 15 is_stmt 0
 1695 0028 4697     		add	a4,a4,a7
 1696              	.LVL233:
 583:cordic-math.c ****         } else {
 1697              		.loc 1 583 13 is_stmt 1
 583:cordic-math.c ****         } else {
 1698              		.loc 1 583 22 is_stmt 0
 1699 002a 33050541 		sub	a0,a0,a6
 1700              	.LVL234:
 590:cordic-math.c ****             k = (3 * k) + 1;
 1701              		.loc 1 590 9 is_stmt 1
 590:cordic-math.c ****             k = (3 * k) + 1;
 1702              		.loc 1 590 12 is_stmt 0
 1703 002e 6385F502 		beq	a1,a5,.L149
 1704              	.L145:
 577:cordic-math.c ****         tempX = x;
 1705              		.loc 1 577 47 discriminator 2
 1706 0032 8507     		addi	a5,a5,1
 1707              	.LVL235:
 577:cordic-math.c ****         tempX = x;
 1708              		.loc 1 577 5 discriminator 2
GAS LISTING C:\Users\elias\AppData\Local\Temp\ccM4DAnB.s 			page 54


 1709 0034 6383C705 		beq	a5,t3,.L142
 1710              	.L151:
 1711 0038 03280600 		lw	a6,0(a2)
 1712 003c 3353F740 		sra	t1,a4,a5
 1713 0040 1106     		addi	a2,a2,4
 578:cordic-math.c ****         if (sumAngle > 0) {
 1714              		.loc 1 578 9 is_stmt 1
 1715              	.LVL236:
 579:cordic-math.c ****             /* Rotate clockwise */
 1716              		.loc 1 579 9
 581:cordic-math.c ****             y += (tempX >> i);
 1717              		.loc 1 581 13
 586:cordic-math.c ****             y -= (tempX >> i);
 1718              		.loc 1 586 13
 1719 0042 B3D8F640 		sra	a7,a3,a5
 579:cordic-math.c ****             /* Rotate clockwise */
 1720              		.loc 1 579 12 is_stmt 0
 1721 0046 E340A0FE 		bgt	a0,zero,.L150
 1722              	.L143:
 588:cordic-math.c ****         }
 1723              		.loc 1 588 22
 1724 004a 4295     		add	a0,a6,a0
 1725              	.LVL237:
 586:cordic-math.c ****             y -= (tempX >> i);
 1726              		.loc 1 586 15
 1727 004c B3866640 		sub	a3,a3,t1
 1728              	.LVL238:
 587:cordic-math.c ****             sumAngle += LUT_CORDIC_ATANH[i - 1];
 1729              		.loc 1 587 13 is_stmt 1
 587:cordic-math.c ****             sumAngle += LUT_CORDIC_ATANH[i - 1];
 1730              		.loc 1 587 15 is_stmt 0
 1731 0050 33071741 		sub	a4,a4,a7
 1732              	.LVL239:
 588:cordic-math.c ****         }
 1733              		.loc 1 588 13 is_stmt 1
 590:cordic-math.c ****             k = (3 * k) + 1;
 1734              		.loc 1 590 9
 590:cordic-math.c ****             k = (3 * k) + 1;
 1735              		.loc 1 590 12 is_stmt 0
 1736 0054 E39FF5FC 		bne	a1,a5,.L145
 1737              	.L149:
 591:cordic-math.c ****             tempX = x;
 1738              		.loc 1 591 13 is_stmt 1
 595:cordic-math.c ****                 y += (tempX >> i);
 1739              		.loc 1 595 17
 600:cordic-math.c ****                 y -= (tempX >> i);
 1740              		.loc 1 600 17
 591:cordic-math.c ****             tempX = x;
 1741              		.loc 1 591 20 is_stmt 0
 1742 0058 93981500 		slli	a7,a1,1
 1743 005c C695     		add	a1,a7,a1
 1744              	.LVL240:
 1745 005e 3353F740 		sra	t1,a4,a5
 1746 0062 B3D8F640 		sra	a7,a3,a5
 591:cordic-math.c ****             tempX = x;
 1747              		.loc 1 591 15
 1748 0066 8505     		addi	a1,a1,1
GAS LISTING C:\Users\elias\AppData\Local\Temp\ccM4DAnB.s 			page 55


 1749              	.LVL241:
 592:cordic-math.c ****             if (sumAngle > 0) {
 1750              		.loc 1 592 13 is_stmt 1
 593:cordic-math.c ****                 /* Rotate clockwise */
 1751              		.loc 1 593 13
 593:cordic-math.c ****                 /* Rotate clockwise */
 1752              		.loc 1 593 16 is_stmt 0
 1753 0068 635BA000 		ble	a0,zero,.L146
 577:cordic-math.c ****         tempX = x;
 1754              		.loc 1 577 47
 1755 006c 8507     		addi	a5,a5,1
 1756              	.LVL242:
 595:cordic-math.c ****                 y += (tempX >> i);
 1757              		.loc 1 595 19
 1758 006e 9A96     		add	a3,a3,t1
 1759              	.LVL243:
 596:cordic-math.c ****                 sumAngle -= LUT_CORDIC_ATANH[i - 1];
 1760              		.loc 1 596 17 is_stmt 1
 596:cordic-math.c ****                 sumAngle -= LUT_CORDIC_ATANH[i - 1];
 1761              		.loc 1 596 19 is_stmt 0
 1762 0070 4697     		add	a4,a4,a7
 1763              	.LVL244:
 597:cordic-math.c ****             } else {
 1764              		.loc 1 597 17 is_stmt 1
 597:cordic-math.c ****             } else {
 1765              		.loc 1 597 26 is_stmt 0
 1766 0072 33050541 		sub	a0,a0,a6
 1767              	.LVL245:
 577:cordic-math.c ****         tempX = x;
 1768              		.loc 1 577 5
 1769 0076 E391C7FD 		bne	a5,t3,.L151
 1770              	.L142:
 1771              	.LBE64:
 607:cordic-math.c **** 
 1772              		.loc 1 607 1
 1773 007a 3A85     		mv	a0,a4
 1774              	.LVL246:
 1775 007c 8280     		ret
 1776              	.LVL247:
 1777              	.L146:
 1778              	.LBB65:
 602:cordic-math.c ****             }
 1779              		.loc 1 602 26
 1780 007e 4295     		add	a0,a6,a0
 1781              	.LVL248:
 600:cordic-math.c ****                 y -= (tempX >> i);
 1782              		.loc 1 600 19
 1783 0080 B3866640 		sub	a3,a3,t1
 1784              	.LVL249:
 601:cordic-math.c ****                 sumAngle += LUT_CORDIC_ATANH[i - 1];
 1785              		.loc 1 601 17 is_stmt 1
 601:cordic-math.c ****                 sumAngle += LUT_CORDIC_ATANH[i - 1];
 1786              		.loc 1 601 19 is_stmt 0
 1787 0084 33071741 		sub	a4,a4,a7
 1788              	.LVL250:
 602:cordic-math.c ****             }
 1789              		.loc 1 602 17 is_stmt 1
GAS LISTING C:\Users\elias\AppData\Local\Temp\ccM4DAnB.s 			page 56


 1790 0088 6DB7     		j	.L145
 1791              	.LBE65:
 1792              		.cfi_endproc
 1793              	.LFE14:
 1795              		.section	.text.cordic_cosh,"ax",@progbits
 1796              		.align	1
 1797              		.globl	cordic_cosh
 1799              	cordic_cosh:
 1800              	.LFB15:
 617:cordic-math.c ****     int tempX, k = 4, sumAngle = theta, y = 0,
 1801              		.loc 1 617 36
 1802              		.cfi_startproc
 1803              	.LVL251:
 618:cordic-math.c ****                x = ONE_DIV_CORDIC_GAIN_HYPERBOLIC;
 1804              		.loc 1 618 5
 620:cordic-math.c ****         tempX = x;
 1805              		.loc 1 620 5
 1806              	.LBB66:
 620:cordic-math.c ****         tempX = x;
 1807              		.loc 1 620 10
 620:cordic-math.c ****         tempX = x;
 1808              		.loc 1 620 14 is_stmt 0
 1809 0000 8547     		li	a5,1
 1810 0002 37060000 		lui	a2,%hi(.LANCHOR1+4)
 1811              	.LBE66:
 617:cordic-math.c ****     int tempX, k = 4, sumAngle = theta, y = 0,
 1812              		.loc 1 617 36
 1813 0006 0968     		li	a6,8192
 619:cordic-math.c ****     for (int i = 1; i < CORDIC_SPEED_FACTOR; i++) {
 1814              		.loc 1 619 16
 1815 0008 13075013 		li	a4,309
 618:cordic-math.c ****                x = ONE_DIV_CORDIC_GAIN_HYPERBOLIC;
 1816              		.loc 1 618 41
 1817 000c 8146     		li	a3,0
 1818 000e 13064600 		addi	a2,a2,%lo(.LANCHOR1+4)
 617:cordic-math.c ****     int tempX, k = 4, sumAngle = theta, y = 0,
 1819              		.loc 1 617 36
 1820 0012 130898F7 		addi	a6,a6,-135
 618:cordic-math.c ****                x = ONE_DIV_CORDIC_GAIN_HYPERBOLIC;
 1821              		.loc 1 618 16
 1822 0016 9145     		li	a1,4
 1823              	.LBB67:
 620:cordic-math.c ****         tempX = x;
 1824              		.loc 1 620 5
 1825 0018 3D4E     		li	t3,15
 1826              	.LVL252:
 621:cordic-math.c ****         if (sumAngle > 0) {
 1827              		.loc 1 621 9 is_stmt 1
 622:cordic-math.c ****             /* Rotate clockwise */
 1828              		.loc 1 622 9
 624:cordic-math.c ****             y += (tempX >> i);
 1829              		.loc 1 624 13
 629:cordic-math.c ****             y -= (tempX >> i);
 1830              		.loc 1 629 13
 1831 001a 33D3F640 		sra	t1,a3,a5
 1832 001e B358F740 		sra	a7,a4,a5
 622:cordic-math.c ****             /* Rotate clockwise */
GAS LISTING C:\Users\elias\AppData\Local\Temp\ccM4DAnB.s 			page 57


 1833              		.loc 1 622 12 is_stmt 0
 1834 0022 6354A002 		ble	a0,zero,.L153
 1835              	.LVL253:
 1836              	.L160:
 624:cordic-math.c ****             y += (tempX >> i);
 1837              		.loc 1 624 15
 1838 0026 1A97     		add	a4,a4,t1
 1839              	.LVL254:
 625:cordic-math.c ****             sumAngle -= LUT_CORDIC_ATANH[i - 1];
 1840              		.loc 1 625 13 is_stmt 1
 625:cordic-math.c ****             sumAngle -= LUT_CORDIC_ATANH[i - 1];
 1841              		.loc 1 625 15 is_stmt 0
 1842 0028 C696     		add	a3,a3,a7
 1843              	.LVL255:
 626:cordic-math.c ****         } else {
 1844              		.loc 1 626 13 is_stmt 1
 626:cordic-math.c ****         } else {
 1845              		.loc 1 626 22 is_stmt 0
 1846 002a 33050541 		sub	a0,a0,a6
 1847              	.LVL256:
 633:cordic-math.c ****             k = (3 * k) + 1;
 1848              		.loc 1 633 9 is_stmt 1
 633:cordic-math.c ****             k = (3 * k) + 1;
 1849              		.loc 1 633 12 is_stmt 0
 1850 002e 6385F502 		beq	a1,a5,.L159
 1851              	.L155:
 620:cordic-math.c ****         tempX = x;
 1852              		.loc 1 620 47 discriminator 2
 1853 0032 8507     		addi	a5,a5,1
 1854              	.LVL257:
 620:cordic-math.c ****         tempX = x;
 1855              		.loc 1 620 5 discriminator 2
 1856 0034 6383C705 		beq	a5,t3,.L152
 1857              	.L161:
 1858 0038 03280600 		lw	a6,0(a2)
 1859 003c 33D3F640 		sra	t1,a3,a5
 1860 0040 1106     		addi	a2,a2,4
 621:cordic-math.c ****         if (sumAngle > 0) {
 1861              		.loc 1 621 9 is_stmt 1
 1862              	.LVL258:
 622:cordic-math.c ****             /* Rotate clockwise */
 1863              		.loc 1 622 9
 624:cordic-math.c ****             y += (tempX >> i);
 1864              		.loc 1 624 13
 629:cordic-math.c ****             y -= (tempX >> i);
 1865              		.loc 1 629 13
 1866 0042 B358F740 		sra	a7,a4,a5
 622:cordic-math.c ****             /* Rotate clockwise */
 1867              		.loc 1 622 12 is_stmt 0
 1868 0046 E340A0FE 		bgt	a0,zero,.L160
 1869              	.L153:
 631:cordic-math.c ****         }
 1870              		.loc 1 631 22
 1871 004a 4295     		add	a0,a6,a0
 1872              	.LVL259:
 629:cordic-math.c ****             y -= (tempX >> i);
 1873              		.loc 1 629 15
GAS LISTING C:\Users\elias\AppData\Local\Temp\ccM4DAnB.s 			page 58


 1874 004c 33076740 		sub	a4,a4,t1
 1875              	.LVL260:
 630:cordic-math.c ****             sumAngle += LUT_CORDIC_ATANH[i - 1];
 1876              		.loc 1 630 13 is_stmt 1
 630:cordic-math.c ****             sumAngle += LUT_CORDIC_ATANH[i - 1];
 1877              		.loc 1 630 15 is_stmt 0
 1878 0050 B3861641 		sub	a3,a3,a7
 1879              	.LVL261:
 631:cordic-math.c ****         }
 1880              		.loc 1 631 13 is_stmt 1
 633:cordic-math.c ****             k = (3 * k) + 1;
 1881              		.loc 1 633 9
 633:cordic-math.c ****             k = (3 * k) + 1;
 1882              		.loc 1 633 12 is_stmt 0
 1883 0054 E39FF5FC 		bne	a1,a5,.L155
 1884              	.L159:
 634:cordic-math.c ****             tempX = x;
 1885              		.loc 1 634 13 is_stmt 1
 638:cordic-math.c ****                 y += (tempX >> i);
 1886              		.loc 1 638 17
 643:cordic-math.c ****                 y -= (tempX >> i);
 1887              		.loc 1 643 17
 634:cordic-math.c ****             tempX = x;
 1888              		.loc 1 634 20 is_stmt 0
 1889 0058 93981500 		slli	a7,a1,1
 1890 005c C695     		add	a1,a7,a1
 1891              	.LVL262:
 1892 005e 33D3F640 		sra	t1,a3,a5
 1893 0062 B358F740 		sra	a7,a4,a5
 634:cordic-math.c ****             tempX = x;
 1894              		.loc 1 634 15
 1895 0066 8505     		addi	a1,a1,1
 1896              	.LVL263:
 635:cordic-math.c ****             if (sumAngle > 0) {
 1897              		.loc 1 635 13 is_stmt 1
 636:cordic-math.c ****                 /* Rotate clockwise */
 1898              		.loc 1 636 13
 636:cordic-math.c ****                 /* Rotate clockwise */
 1899              		.loc 1 636 16 is_stmt 0
 1900 0068 635BA000 		ble	a0,zero,.L156
 620:cordic-math.c ****         tempX = x;
 1901              		.loc 1 620 47
 1902 006c 8507     		addi	a5,a5,1
 1903              	.LVL264:
 638:cordic-math.c ****                 y += (tempX >> i);
 1904              		.loc 1 638 19
 1905 006e 1A97     		add	a4,a4,t1
 1906              	.LVL265:
 639:cordic-math.c ****                 sumAngle -= LUT_CORDIC_ATANH[i - 1];
 1907              		.loc 1 639 17 is_stmt 1
 639:cordic-math.c ****                 sumAngle -= LUT_CORDIC_ATANH[i - 1];
 1908              		.loc 1 639 19 is_stmt 0
 1909 0070 C696     		add	a3,a3,a7
 1910              	.LVL266:
 640:cordic-math.c ****             } else {
 1911              		.loc 1 640 17 is_stmt 1
 640:cordic-math.c ****             } else {
GAS LISTING C:\Users\elias\AppData\Local\Temp\ccM4DAnB.s 			page 59


 1912              		.loc 1 640 26 is_stmt 0
 1913 0072 33050541 		sub	a0,a0,a6
 1914              	.LVL267:
 620:cordic-math.c ****         tempX = x;
 1915              		.loc 1 620 5
 1916 0076 E391C7FD 		bne	a5,t3,.L161
 1917              	.L152:
 1918              	.LBE67:
 650:cordic-math.c **** 
 1919              		.loc 1 650 1
 1920 007a 3A85     		mv	a0,a4
 1921              	.LVL268:
 1922 007c 8280     		ret
 1923              	.LVL269:
 1924              	.L156:
 1925              	.LBB68:
 645:cordic-math.c ****             }
 1926              		.loc 1 645 26
 1927 007e 4295     		add	a0,a6,a0
 1928              	.LVL270:
 643:cordic-math.c ****                 y -= (tempX >> i);
 1929              		.loc 1 643 19
 1930 0080 33076740 		sub	a4,a4,t1
 1931              	.LVL271:
 644:cordic-math.c ****                 sumAngle += LUT_CORDIC_ATANH[i - 1];
 1932              		.loc 1 644 17 is_stmt 1
 644:cordic-math.c ****                 sumAngle += LUT_CORDIC_ATANH[i - 1];
 1933              		.loc 1 644 19 is_stmt 0
 1934 0084 B3861641 		sub	a3,a3,a7
 1935              	.LVL272:
 645:cordic-math.c ****             }
 1936              		.loc 1 645 17 is_stmt 1
 1937 0088 6DB7     		j	.L155
 1938              	.LBE68:
 1939              		.cfi_endproc
 1940              	.LFE15:
 1942              		.section	.text.cordic_tanh,"ax",@progbits
 1943              		.align	1
 1944              		.globl	cordic_tanh
 1946              	cordic_tanh:
 1947              	.LFB16:
 660:cordic-math.c ****     return (((long)cordic_sinh(theta) << CORDIC_MATH_FRACTION_BITS) /
 1948              		.loc 1 660 36
 1949              		.cfi_startproc
 1950              	.LVL273:
 661:cordic-math.c ****             cordic_cosh(theta));
 1951              		.loc 1 661 5
 660:cordic-math.c ****     return (((long)cordic_sinh(theta) << CORDIC_MATH_FRACTION_BITS) /
 1952              		.loc 1 660 36 is_stmt 0
 1953 0000 4111     		addi	sp,sp,-16
 1954              	.LCFI7:
 1955              		.cfi_def_cfa_offset 16
 1956 0002 06C6     		sw	ra,12(sp)
 1957 0004 22C4     		sw	s0,8(sp)
 1958 0006 26C2     		sw	s1,4(sp)
 1959              		.cfi_offset 1, -4
 1960              		.cfi_offset 8, -8
GAS LISTING C:\Users\elias\AppData\Local\Temp\ccM4DAnB.s 			page 60


 1961              		.cfi_offset 9, -12
 660:cordic-math.c ****     return (((long)cordic_sinh(theta) << CORDIC_MATH_FRACTION_BITS) /
 1962              		.loc 1 660 36
 1963 0008 AA84     		mv	s1,a0
 661:cordic-math.c ****             cordic_cosh(theta));
 1964              		.loc 1 661 20
 1965 000a 97000000 		call	cordic_sinh
 1965      E7800000 
 1966              	.LVL274:
 1967 0012 2A84     		mv	s0,a0
 662:cordic-math.c **** }
 1968              		.loc 1 662 13
 1969 0014 2685     		mv	a0,s1
 1970 0016 97000000 		call	cordic_cosh
 1970      E7800000 
 1971              	.LVL275:
 661:cordic-math.c ****             cordic_cosh(theta));
 1972              		.loc 1 661 39
 1973 001e 2204     		slli	s0,s0,8
 663:cordic-math.c **** 
 1974              		.loc 1 663 1
 1975 0020 3345A402 		div	a0,s0,a0
 1976 0024 B240     		lw	ra,12(sp)
 1977              		.cfi_restore 1
 1978 0026 2244     		lw	s0,8(sp)
 1979              		.cfi_restore 8
 1980 0028 9244     		lw	s1,4(sp)
 1981              		.cfi_restore 9
 1982              	.LVL276:
 1983 002a 4101     		addi	sp,sp,16
 1984              	.LCFI8:
 1985              		.cfi_def_cfa_offset 0
 1986 002c 8280     		jr	ra
 1987              		.cfi_endproc
 1988              	.LFE16:
 1990              		.section	.text.cordic_exp,"ax",@progbits
 1991              		.align	1
 1992              		.globl	cordic_exp
 1994              	cordic_exp:
 1995              	.LFB17:
 672:cordic-math.c ****     int tempX, k = 4, sumAngle = to_degree(exponent),
 1996              		.loc 1 672 38 is_stmt 1
 1997              		.cfi_startproc
 1998              	.LVL277:
 673:cordic-math.c ****                y = ONE_DIV_CORDIC_GAIN_HYPERBOLIC,
 1999              		.loc 1 673 5
 2000              	.LBB69:
 2001              	.LBB70:
 778:cordic-math.c **** }
 2002              		.loc 1 778 5
 778:cordic-math.c **** }
 2003              		.loc 1 778 25 is_stmt 0
 2004 0000 9167     		li	a5,16384
 2005 0002 9387C794 		addi	a5,a5,-1716
 2006 0006 3305F502 		mul	a0,a0,a5
 2007              	.LVL278:
 2008              	.LBE70:
GAS LISTING C:\Users\elias\AppData\Local\Temp\ccM4DAnB.s 			page 61


 2009              	.LBE69:
 675:cordic-math.c **** 
 2010              		.loc 1 675 52
 2011 000a 8148     		li	a7,0
 2012              	.LBB72:
 2013              	.LBB71:
 778:cordic-math.c **** }
 2014              		.loc 1 778 45
 2015 000c 2181     		srli	a0,a0,8
 2016 000e 2A87     		mv	a4,a0
 2017              	.LVL279:
 2018              	.LBE71:
 2019              	.LBE72:
 677:cordic-math.c ****         sumAngle -= ONE_EIGHTY_DIV_PI;
 2020              		.loc 1 677 5 is_stmt 1
 677:cordic-math.c ****         sumAngle -= ONE_EIGHTY_DIV_PI;
 2021              		.loc 1 677 11 is_stmt 0
 2022 0010 63FAA700 		bleu	a0,a5,.L165
 678:cordic-math.c ****         n++;
 2023              		.loc 1 678 18
 2024 0014 F176     		li	a3,-16384
 2025 0016 9386466B 		addi	a3,a3,1716
 2026              	.LVL280:
 2027              	.L166:
 678:cordic-math.c ****         n++;
 2028              		.loc 1 678 9 is_stmt 1
 678:cordic-math.c ****         n++;
 2029              		.loc 1 678 18 is_stmt 0
 2030 001a 3695     		add	a0,a0,a3
 2031              	.LVL281:
 2032 001c 2A87     		mv	a4,a0
 679:cordic-math.c ****     }
 2033              		.loc 1 679 9 is_stmt 1
 679:cordic-math.c ****     }
 2034              		.loc 1 679 10 is_stmt 0
 2035 001e 8508     		addi	a7,a7,1
 2036              	.LVL282:
 677:cordic-math.c ****         sumAngle -= ONE_EIGHTY_DIV_PI;
 2037              		.loc 1 677 11
 2038 0020 E3EDA7FE 		bgtu	a0,a5,.L166
 2039              	.LVL283:
 2040              	.L165:
 2041 0024 37060000 		lui	a2,%hi(.LANCHOR1+4)
 675:cordic-math.c **** 
 2042              		.loc 1 675 52
 2043 0028 0965     		li	a0,8192
 2044              	.LVL284:
 2045              	.LBB73:
 682:cordic-math.c ****         tempX = x;
 2046              		.loc 1 682 14
 2047 002a 8547     		li	a5,1
 2048              	.LBE73:
 674:cordic-math.c ****                x = ONE_DIV_CORDIC_GAIN_HYPERBOLIC, n = 0;
 2049              		.loc 1 674 16
 2050 002c 93065013 		li	a3,309
 2051 0030 13064600 		addi	a2,a2,%lo(.LANCHOR1+4)
 675:cordic-math.c **** 
GAS LISTING C:\Users\elias\AppData\Local\Temp\ccM4DAnB.s 			page 62


 2052              		.loc 1 675 52
 2053 0034 130595F7 		addi	a0,a0,-135
 673:cordic-math.c ****                y = ONE_DIV_CORDIC_GAIN_HYPERBOLIC,
 2054              		.loc 1 673 16
 2055 0038 9145     		li	a1,4
 2056              	.LBB74:
 682:cordic-math.c ****         tempX = x;
 2057              		.loc 1 682 5
 2058 003a 3D43     		li	t1,15
 2059              	.LVL285:
 683:cordic-math.c ****         if (sumAngle > 0) {
 2060              		.loc 1 683 9 is_stmt 1
 684:cordic-math.c ****             /* Rotate clockwise */
 2061              		.loc 1 684 9
 686:cordic-math.c ****             y += (tempX >> i);
 2062              		.loc 1 686 13
 691:cordic-math.c ****             y -= (tempX >> i);
 2063              		.loc 1 691 13
 2064 003c 33D8F640 		sra	a6,a3,a5
 684:cordic-math.c ****             /* Rotate clockwise */
 2065              		.loc 1 684 12 is_stmt 0
 2066 0040 635FE000 		ble	a4,zero,.L167
 2067              	.LVL286:
 2068              	.L180:
 686:cordic-math.c ****             y += (tempX >> i);
 2069              		.loc 1 686 15
 2070 0044 C296     		add	a3,a3,a6
 2071              	.LVL287:
 687:cordic-math.c ****             sumAngle -= LUT_CORDIC_ATANH[i - 1];
 2072              		.loc 1 687 13 is_stmt 1
 688:cordic-math.c ****         } else {
 2073              		.loc 1 688 13
 688:cordic-math.c ****         } else {
 2074              		.loc 1 688 22 is_stmt 0
 2075 0046 098F     		sub	a4,a4,a0
 2076              	.LVL288:
 695:cordic-math.c ****             k = (3 * k) + 1;
 2077              		.loc 1 695 9 is_stmt 1
 695:cordic-math.c ****             k = (3 * k) + 1;
 2078              		.loc 1 695 12 is_stmt 0
 2079 0048 6380F502 		beq	a1,a5,.L179
 2080              	.LVL289:
 2081              	.L169:
 682:cordic-math.c ****         tempX = x;
 2082              		.loc 1 682 47 discriminator 2
 2083 004c 8507     		addi	a5,a5,1
 2084              	.LVL290:
 682:cordic-math.c ****         tempX = x;
 2085              		.loc 1 682 5 discriminator 2
 2086 004e 638A6702 		beq	a5,t1,.L171
 2087              	.L181:
 2088 0052 0842     		lw	a0,0(a2)
 2089 0054 33D8F640 		sra	a6,a3,a5
 2090 0058 1106     		addi	a2,a2,4
 683:cordic-math.c ****         if (sumAngle > 0) {
 2091              		.loc 1 683 9 is_stmt 1
 2092              	.LVL291:
GAS LISTING C:\Users\elias\AppData\Local\Temp\ccM4DAnB.s 			page 63


 684:cordic-math.c ****             /* Rotate clockwise */
 2093              		.loc 1 684 9
 686:cordic-math.c ****             y += (tempX >> i);
 2094              		.loc 1 686 13
 691:cordic-math.c ****             y -= (tempX >> i);
 2095              		.loc 1 691 13
 684:cordic-math.c ****             /* Rotate clockwise */
 2096              		.loc 1 684 12 is_stmt 0
 2097 005a E345E0FE 		bgt	a4,zero,.L180
 2098              	.L167:
 693:cordic-math.c ****         }
 2099              		.loc 1 693 22
 2100 005e 2A97     		add	a4,a0,a4
 691:cordic-math.c ****             y -= (tempX >> i);
 2101              		.loc 1 691 15
 2102 0060 B3860641 		sub	a3,a3,a6
 2103              	.LVL292:
 692:cordic-math.c ****             sumAngle += LUT_CORDIC_ATANH[i - 1];
 2104              		.loc 1 692 13 is_stmt 1
 693:cordic-math.c ****         }
 2105              		.loc 1 693 13
 695:cordic-math.c ****             k = (3 * k) + 1;
 2106              		.loc 1 695 9
 695:cordic-math.c ****             k = (3 * k) + 1;
 2107              		.loc 1 695 12 is_stmt 0
 2108 0064 E394F5FE 		bne	a1,a5,.L169
 2109              	.L179:
 696:cordic-math.c ****             tempX = x;
 2110              		.loc 1 696 13 is_stmt 1
 700:cordic-math.c ****                 y += (tempX >> i);
 2111              		.loc 1 700 17
 705:cordic-math.c ****                 y -= (tempX >> i);
 2112              		.loc 1 705 17
 696:cordic-math.c ****             tempX = x;
 2113              		.loc 1 696 20 is_stmt 0
 2114 0068 13981500 		slli	a6,a1,1
 2115 006c C295     		add	a1,a6,a1
 2116              	.LVL293:
 696:cordic-math.c ****             tempX = x;
 2117              		.loc 1 696 15
 2118 006e 8505     		addi	a1,a1,1
 2119              	.LVL294:
 697:cordic-math.c ****             if (sumAngle > 0) {
 2120              		.loc 1 697 13 is_stmt 1
 698:cordic-math.c ****                 /* Rotate clockwise */
 2121              		.loc 1 698 13
 2122 0070 33D8F640 		sra	a6,a3,a5
 698:cordic-math.c ****                 /* Rotate clockwise */
 2123              		.loc 1 698 16 is_stmt 0
 2124 0074 6358E002 		ble	a4,zero,.L170
 682:cordic-math.c ****         tempX = x;
 2125              		.loc 1 682 47
 2126 0078 8507     		addi	a5,a5,1
 2127              	.LVL295:
 700:cordic-math.c ****                 y += (tempX >> i);
 2128              		.loc 1 700 19
 2129 007a C296     		add	a3,a3,a6
GAS LISTING C:\Users\elias\AppData\Local\Temp\ccM4DAnB.s 			page 64


 2130              	.LVL296:
 701:cordic-math.c ****                 sumAngle -= LUT_CORDIC_ATANH[i - 1];
 2131              		.loc 1 701 17 is_stmt 1
 702:cordic-math.c ****             } else {
 2132              		.loc 1 702 17
 702:cordic-math.c ****             } else {
 2133              		.loc 1 702 26 is_stmt 0
 2134 007c 098F     		sub	a4,a4,a0
 2135              	.LVL297:
 682:cordic-math.c ****         tempX = x;
 2136              		.loc 1 682 5
 2137 007e E39A67FC 		bne	a5,t1,.L181
 2138              	.LVL298:
 2139              	.L171:
 2140              	.LBE74:
 2141              	.LBB75:
 713:cordic-math.c ****         y = ((long)y * EULER) >> CORDIC_MATH_FRACTION_BITS;
 2142              		.loc 1 713 5
 2143 0082 63850802 		beq	a7,zero,.L176
 713:cordic-math.c ****         y = ((long)y * EULER) >> CORDIC_MATH_FRACTION_BITS;
 2144              		.loc 1 713 14
 2145 0086 8147     		li	a5,0
 2146              	.LVL299:
 2147              	.LBE75:
 712:cordic-math.c ****     for (int i = 0; i < n; i++) {
 2148              		.loc 1 712 7
 2149 0088 13050010 		li	a0,256
 2150              	.LBB76:
 714:cordic-math.c ****     }
 2151              		.loc 1 714 22
 2152 008c 1307802B 		li	a4,696
 2153              	.LVL300:
 2154              	.L174:
 714:cordic-math.c ****     }
 2155              		.loc 1 714 9 is_stmt 1 discriminator 3
 714:cordic-math.c ****     }
 2156              		.loc 1 714 22 is_stmt 0 discriminator 3
 2157 0090 3305E502 		mul	a0,a0,a4
 2158              	.LVL301:
 713:cordic-math.c ****         y = ((long)y * EULER) >> CORDIC_MATH_FRACTION_BITS;
 2159              		.loc 1 713 29 discriminator 3
 2160 0094 8507     		addi	a5,a5,1
 2161              	.LVL302:
 714:cordic-math.c ****     }
 2162              		.loc 1 714 31 discriminator 3
 2163 0096 2181     		srli	a0,a0,8
 2164              	.LVL303:
 713:cordic-math.c ****         y = ((long)y * EULER) >> CORDIC_MATH_FRACTION_BITS;
 2165              		.loc 1 713 5 discriminator 3
 2166 0098 E39CF8FE 		bne	a7,a5,.L174
 2167              	.LBE76:
 716:cordic-math.c **** }
 2168              		.loc 1 716 5 is_stmt 1
 716:cordic-math.c **** }
 2169              		.loc 1 716 21 is_stmt 0
 2170 009c 3385A602 		mul	a0,a3,a0
 2171              	.LVL304:
GAS LISTING C:\Users\elias\AppData\Local\Temp\ccM4DAnB.s 			page 65


 717:cordic-math.c **** 
 2172              		.loc 1 717 1
 2173 00a0 2185     		srai	a0,a0,8
 2174 00a2 8280     		ret
 2175              	.LVL305:
 2176              	.L170:
 2177              	.LBB77:
 707:cordic-math.c ****             }
 2178              		.loc 1 707 26
 2179 00a4 2A97     		add	a4,a0,a4
 705:cordic-math.c ****                 y -= (tempX >> i);
 2180              		.loc 1 705 19
 2181 00a6 B3860641 		sub	a3,a3,a6
 2182              	.LVL306:
 706:cordic-math.c ****                 sumAngle += LUT_CORDIC_ATANH[i - 1];
 2183              		.loc 1 706 17 is_stmt 1
 707:cordic-math.c ****             }
 2184              		.loc 1 707 17
 2185 00aa 4DB7     		j	.L169
 2186              	.LVL307:
 2187              	.L176:
 2188              	.LBE77:
 712:cordic-math.c ****     for (int i = 0; i < n; i++) {
 2189              		.loc 1 712 7 is_stmt 0
 2190 00ac 13050010 		li	a0,256
 716:cordic-math.c **** }
 2191              		.loc 1 716 5 is_stmt 1
 716:cordic-math.c **** }
 2192              		.loc 1 716 21 is_stmt 0
 2193 00b0 3385A602 		mul	a0,a3,a0
 717:cordic-math.c **** 
 2194              		.loc 1 717 1
 2195 00b4 2185     		srai	a0,a0,8
 2196 00b6 8280     		ret
 2197              		.cfi_endproc
 2198              	.LFE17:
 2200              		.section	.text.cordic_pow,"ax",@progbits
 2201              		.align	1
 2202              		.globl	cordic_pow
 2204              	cordic_pow:
 2205              	.LFB18:
 727:cordic-math.c ****     return cordic_exp(exponent * cordic_ln(base) >> CORDIC_MATH_FRACTION_BITS);
 2206              		.loc 1 727 52 is_stmt 1
 2207              		.cfi_startproc
 2208              	.LVL308:
 728:cordic-math.c **** }
 2209              		.loc 1 728 5
 727:cordic-math.c ****     return cordic_exp(exponent * cordic_ln(base) >> CORDIC_MATH_FRACTION_BITS);
 2210              		.loc 1 727 52 is_stmt 0
 2211 0000 4111     		addi	sp,sp,-16
 2212              	.LCFI9:
 2213              		.cfi_def_cfa_offset 16
 2214 0002 22C4     		sw	s0,8(sp)
 2215 0004 06C6     		sw	ra,12(sp)
 2216              		.cfi_offset 8, -8
 2217              		.cfi_offset 1, -4
 727:cordic-math.c ****     return cordic_exp(exponent * cordic_ln(base) >> CORDIC_MATH_FRACTION_BITS);
GAS LISTING C:\Users\elias\AppData\Local\Temp\ccM4DAnB.s 			page 66


 2218              		.loc 1 727 52
 2219 0006 2E84     		mv	s0,a1
 728:cordic-math.c **** }
 2220              		.loc 1 728 34
 2221 0008 97000000 		call	cordic_ln
 2221      E7800000 
 2222              	.LVL309:
 728:cordic-math.c **** }
 2223              		.loc 1 728 32
 2224 0010 33058502 		mul	a0,a0,s0
 729:cordic-math.c **** 
 2225              		.loc 1 729 1
 2226 0014 2244     		lw	s0,8(sp)
 2227              		.cfi_restore 8
 2228              	.LVL310:
 2229 0016 B240     		lw	ra,12(sp)
 2230              		.cfi_restore 1
 2231 0018 4101     		addi	sp,sp,16
 2232              	.LCFI10:
 2233              		.cfi_def_cfa_offset 0
 728:cordic-math.c **** }
 2234              		.loc 1 728 12
 2235 001a 2185     		srai	a0,a0,8
 2236 001c 17030000 		tail	cordic_exp
 2236      67000300 
 2237              	.LVL311:
 2238              		.cfi_endproc
 2239              	.LFE18:
 2241              		.section	.text.cordic_abs,"ax",@progbits
 2242              		.align	1
 2243              		.globl	cordic_abs
 2245              	cordic_abs:
 2246              	.LFB19:
 738:cordic-math.c ****     if (input > 0) {
 2247              		.loc 1 738 35 is_stmt 1
 2248              		.cfi_startproc
 2249              	.LVL312:
 739:cordic-math.c ****         return input;
 2250              		.loc 1 739 5
 2251 0000 9357F541 		srai	a5,a0,31
 2252 0004 3D8D     		xor	a0,a5,a0
 2253              	.LVL313:
 744:cordic-math.c **** 
 2254              		.loc 1 744 1 is_stmt 0
 2255 0006 1D8D     		sub	a0,a0,a5
 2256 0008 8280     		ret
 2257              		.cfi_endproc
 2258              	.LFE19:
 2260              		.section	.text.isEven,"ax",@progbits
 2261              		.align	1
 2262              		.globl	isEven
 2264              	isEven:
 2265              	.LFB20:
 753:cordic-math.c ****     if (input % 2) return 0;
 2266              		.loc 1 753 31 is_stmt 1
 2267              		.cfi_startproc
 2268              	.LVL314:
GAS LISTING C:\Users\elias\AppData\Local\Temp\ccM4DAnB.s 			page 67


 754:cordic-math.c ****     return 1;
 2269              		.loc 1 754 5
 754:cordic-math.c ****     return 1;
 2270              		.loc 1 754 27 is_stmt 0
 2271 0000 1345F5FF 		not	a0,a0
 2272              	.LVL315:
 756:cordic-math.c **** 
 2273              		.loc 1 756 1
 2274 0004 0589     		andi	a0,a0,1
 2275              	.LVL316:
 2276 0006 8280     		ret
 2277              		.cfi_endproc
 2278              	.LFE20:
 2280              		.section	.text.isOdd,"ax",@progbits
 2281              		.align	1
 2282              		.globl	isOdd
 2284              	isOdd:
 2285              	.LFB21:
 765:cordic-math.c ****     if (input % 2) return 1;
 2286              		.loc 1 765 30 is_stmt 1
 2287              		.cfi_startproc
 2288              	.LVL317:
 766:cordic-math.c ****     return 0;
 2289              		.loc 1 766 5
 768:cordic-math.c **** 
 2290              		.loc 1 768 1 is_stmt 0
 2291 0000 0589     		andi	a0,a0,1
 2292              	.LVL318:
 2293 0002 8280     		ret
 2294              		.cfi_endproc
 2295              	.LFE21:
 2297              		.section	.text.to_degree,"ax",@progbits
 2298              		.align	1
 2299              		.globl	to_degree
 2301              	to_degree:
 2302              	.LFB22:
 777:cordic-math.c ****     return ((long)input * ONE_EIGHTY_DIV_PI >> CORDIC_MATH_FRACTION_BITS);
 2303              		.loc 1 777 34 is_stmt 1
 2304              		.cfi_startproc
 2305              	.LVL319:
 778:cordic-math.c **** }
 2306              		.loc 1 778 5
 778:cordic-math.c **** }
 2307              		.loc 1 778 25 is_stmt 0
 2308 0000 9167     		li	a5,16384
 2309 0002 9387C794 		addi	a5,a5,-1716
 2310 0006 3305F502 		mul	a0,a0,a5
 2311              	.LVL320:
 779:cordic-math.c **** 
 2312              		.loc 1 779 1
 2313 000a 2181     		srli	a0,a0,8
 2314 000c 8280     		ret
 2315              		.cfi_endproc
 2316              	.LFE22:
 2318              		.section	.text.to_radians,"ax",@progbits
 2319              		.align	1
 2320              		.globl	to_radians
GAS LISTING C:\Users\elias\AppData\Local\Temp\ccM4DAnB.s 			page 68


 2322              	to_radians:
 2323              	.LFB23:
 788:cordic-math.c ****     return (((long)input << CORDIC_MATH_FRACTION_BITS) / ONE_EIGHTY_DIV_PI);
 2324              		.loc 1 788 35 is_stmt 1
 2325              		.cfi_startproc
 2326              	.LVL321:
 2327              		.loc 1 789 5
 2328              		.loc 1 789 56 is_stmt 0
 2329 0000 9167     		li	a5,16384
 2330 0002 9387C794 		addi	a5,a5,-1716
 2331              		.loc 1 789 26
 2332 0006 2205     		slli	a0,a0,8
 2333              	.LVL322:
 790:cordic-math.c **** }
 2334              		.loc 1 790 1
 2335 0008 3355F502 		divu	a0,a0,a5
 2336 000c 8280     		ret
 2337              		.cfi_endproc
 2338              	.LFE23:
 2340              		.section	.rodata.LUT_CORDIC_ATAN,"a"
 2341              		.align	2
 2342              		.set	.LANCHOR0,. + 0
 2345              	LUT_CORDIC_ATAN:
 2346 0000 002D0000 		.word	11520
 2347 0004 911A0000 		.word	6801
 2348 0008 090E0000 		.word	3593
 2349 000c 20070000 		.word	1824
 2350 0010 94030000 		.word	916
 2351 0014 CA010000 		.word	458
 2352 0018 E5000000 		.word	229
 2353 001c 73000000 		.word	115
 2354 0020 39000000 		.word	57
 2355 0024 1D000000 		.word	29
 2356 0028 0E000000 		.word	14
 2357 002c 07000000 		.word	7
 2358 0030 04000000 		.word	4
 2359 0034 02000000 		.word	2
 2360 0038 01000000 		.word	1
 2361              		.section	.rodata.LUT_CORDIC_ATANH,"a"
 2362              		.align	2
 2363              		.set	.LANCHOR1,. + 0
 2366              	LUT_CORDIC_ATANH:
 2367 0000 791F0000 		.word	8057
 2368 0004 A20E0000 		.word	3746
 2369 0008 33070000 		.word	1843
 2370 000c 96030000 		.word	918
 2371 0010 CB010000 		.word	459
 2372 0014 E5000000 		.word	229
 2373 0018 73000000 		.word	115
 2374 001c 39000000 		.word	57
 2375 0020 1D000000 		.word	29
 2376 0024 0E000000 		.word	14
 2377 0028 07000000 		.word	7
 2378 002c 04000000 		.word	4
 2379 0030 02000000 		.word	2
 2380 0034 01000000 		.word	1
 2381              		.text
GAS LISTING C:\Users\elias\AppData\Local\Temp\ccM4DAnB.s 			page 69


 2382              	.Letext0:
 2383              		.file 2 "c:\\users\\elias\\desktop\\fft\\projektet\\toolchain-gd32v-win\\compiler\\riscv64-unknown
 2384              		.file 3 "c:\\users\\elias\\desktop\\fft\\projektet\\toolchain-gd32v-win\\compiler\\riscv64-unknown
 2385              		.file 4 "cordic-math.h"
GAS LISTING C:\Users\elias\AppData\Local\Temp\ccM4DAnB.s 			page 70


DEFINED SYMBOLS
                            *ABS*:0000000000000000 cordic-math.c
C:\Users\elias\AppData\Local\Temp\ccM4DAnB.s:13     .text.cordic_atan:0000000000000000 cordic_atan
C:\Users\elias\AppData\Local\Temp\ccM4DAnB.s:17     .text.cordic_atan:0000000000000000 .L0 
C:\Users\elias\AppData\Local\Temp\ccM4DAnB.s:19     .text.cordic_atan:0000000000000000 .L0 
C:\Users\elias\AppData\Local\Temp\ccM4DAnB.s:20     .text.cordic_atan:0000000000000000 .L0 
C:\Users\elias\AppData\Local\Temp\ccM4DAnB.s:21     .text.cordic_atan:0000000000000000 .L0 
C:\Users\elias\AppData\Local\Temp\ccM4DAnB.s:22     .text.cordic_atan:0000000000000000 .L0 
C:\Users\elias\AppData\Local\Temp\ccM4DAnB.s:24     .text.cordic_atan:0000000000000002 .L0 
C:\Users\elias\AppData\Local\Temp\ccM4DAnB.s:26     .text.cordic_atan:0000000000000006 .L0 
C:\Users\elias\AppData\Local\Temp\ccM4DAnB.s:27     .text.cordic_atan:0000000000000006 .L0 
C:\Users\elias\AppData\Local\Temp\ccM4DAnB.s:30     .text.cordic_atan:000000000000000a .L0 
C:\Users\elias\AppData\Local\Temp\ccM4DAnB.s:31     .text.cordic_atan:000000000000000a .L0 
C:\Users\elias\AppData\Local\Temp\ccM4DAnB.s:36     .text.cordic_atan:0000000000000012 .L0 
C:\Users\elias\AppData\Local\Temp\ccM4DAnB.s:43     .text.cordic_atan:0000000000000020 .L0 
C:\Users\elias\AppData\Local\Temp\ccM4DAnB.s:48     .text.cordic_atan:0000000000000024 .L0 
C:\Users\elias\AppData\Local\Temp\ccM4DAnB.s:51     .text.cordic_atan:0000000000000026 .L0 
C:\Users\elias\AppData\Local\Temp\ccM4DAnB.s:54     .text.cordic_atan:0000000000000028 .L0 
C:\Users\elias\AppData\Local\Temp\ccM4DAnB.s:55     .text.cordic_atan:0000000000000028 .L0 
C:\Users\elias\AppData\Local\Temp\ccM4DAnB.s:58     .text.cordic_atan:000000000000002c .L0 
C:\Users\elias\AppData\Local\Temp\ccM4DAnB.s:59     .text.cordic_atan:000000000000002c .L0 
C:\Users\elias\AppData\Local\Temp\ccM4DAnB.s:62     .text.cordic_atan:000000000000002e .L0 
C:\Users\elias\AppData\Local\Temp\ccM4DAnB.s:69     .text.cordic_atan:0000000000000036 .L0 
C:\Users\elias\AppData\Local\Temp\ccM4DAnB.s:70     .text.cordic_atan:0000000000000036 .L0 
C:\Users\elias\AppData\Local\Temp\ccM4DAnB.s:71     .text.cordic_atan:0000000000000036 .L0 
C:\Users\elias\AppData\Local\Temp\ccM4DAnB.s:72     .text.cordic_atan:0000000000000036 .L0 
C:\Users\elias\AppData\Local\Temp\ccM4DAnB.s:75     .text.cordic_atan:000000000000003e .L0 
C:\Users\elias\AppData\Local\Temp\ccM4DAnB.s:77     .text.cordic_atan:0000000000000042 .L0 
C:\Users\elias\AppData\Local\Temp\ccM4DAnB.s:80     .text.cordic_atan:0000000000000044 .L0 
C:\Users\elias\AppData\Local\Temp\ccM4DAnB.s:83     .text.cordic_atan:0000000000000046 .L0 
C:\Users\elias\AppData\Local\Temp\ccM4DAnB.s:86     .text.cordic_atan:000000000000004a .L0 
C:\Users\elias\AppData\Local\Temp\ccM4DAnB.s:87     .text.cordic_atan:000000000000004a .L0 
C:\Users\elias\AppData\Local\Temp\ccM4DAnB.s:90     .text.cordic_atan:000000000000004c .L0 
C:\Users\elias\AppData\Local\Temp\ccM4DAnB.s:91     .text.cordic_atan:000000000000004c .L0 
C:\Users\elias\AppData\Local\Temp\ccM4DAnB.s:95     .text.cordic_atan:0000000000000050 .L0 
C:\Users\elias\AppData\Local\Temp\ccM4DAnB.s:96     .text.cordic_atan:0000000000000052 .L0 
C:\Users\elias\AppData\Local\Temp\ccM4DAnB.s:103    .text.cordic_hypotenuse:0000000000000000 cordic_hypotenuse
C:\Users\elias\AppData\Local\Temp\ccM4DAnB.s:106    .text.cordic_hypotenuse:0000000000000000 .L0 
C:\Users\elias\AppData\Local\Temp\ccM4DAnB.s:108    .text.cordic_hypotenuse:0000000000000000 .L0 
C:\Users\elias\AppData\Local\Temp\ccM4DAnB.s:109    .text.cordic_hypotenuse:0000000000000000 .L0 
C:\Users\elias\AppData\Local\Temp\ccM4DAnB.s:110    .text.cordic_hypotenuse:0000000000000000 .L0 
C:\Users\elias\AppData\Local\Temp\ccM4DAnB.s:111    .text.cordic_hypotenuse:0000000000000000 .L0 
C:\Users\elias\AppData\Local\Temp\ccM4DAnB.s:121    .text.cordic_hypotenuse:0000000000000010 .L0 
C:\Users\elias\AppData\Local\Temp\ccM4DAnB.s:122    .text.cordic_hypotenuse:0000000000000010 .L0 
C:\Users\elias\AppData\Local\Temp\ccM4DAnB.s:123    .text.cordic_hypotenuse:0000000000000010 .L0 
C:\Users\elias\AppData\Local\Temp\ccM4DAnB.s:126    .text.cordic_hypotenuse:0000000000000012 .L0 
C:\Users\elias\AppData\Local\Temp\ccM4DAnB.s:131    .text.cordic_hypotenuse:0000000000000016 .L0 
C:\Users\elias\AppData\Local\Temp\ccM4DAnB.s:134    .text.cordic_hypotenuse:0000000000000018 .L0 
C:\Users\elias\AppData\Local\Temp\ccM4DAnB.s:137    .text.cordic_hypotenuse:000000000000001a .L0 
C:\Users\elias\AppData\Local\Temp\ccM4DAnB.s:138    .text.cordic_hypotenuse:000000000000001a .L0 
C:\Users\elias\AppData\Local\Temp\ccM4DAnB.s:141    .text.cordic_hypotenuse:000000000000001c .L0 
C:\Users\elias\AppData\Local\Temp\ccM4DAnB.s:145    .text.cordic_hypotenuse:0000000000000020 .L0 
C:\Users\elias\AppData\Local\Temp\ccM4DAnB.s:146    .text.cordic_hypotenuse:0000000000000020 .L0 
C:\Users\elias\AppData\Local\Temp\ccM4DAnB.s:147    .text.cordic_hypotenuse:0000000000000020 .L0 
C:\Users\elias\AppData\Local\Temp\ccM4DAnB.s:148    .text.cordic_hypotenuse:0000000000000020 .L0 
C:\Users\elias\AppData\Local\Temp\ccM4DAnB.s:151    .text.cordic_hypotenuse:0000000000000028 .L0 
C:\Users\elias\AppData\Local\Temp\ccM4DAnB.s:153    .text.cordic_hypotenuse:000000000000002c .L0 
GAS LISTING C:\Users\elias\AppData\Local\Temp\ccM4DAnB.s 			page 71


C:\Users\elias\AppData\Local\Temp\ccM4DAnB.s:156    .text.cordic_hypotenuse:000000000000002e .L0 
C:\Users\elias\AppData\Local\Temp\ccM4DAnB.s:159    .text.cordic_hypotenuse:0000000000000030 .L0 
C:\Users\elias\AppData\Local\Temp\ccM4DAnB.s:160    .text.cordic_hypotenuse:0000000000000030 .L0 
C:\Users\elias\AppData\Local\Temp\ccM4DAnB.s:163    .text.cordic_hypotenuse:0000000000000032 .L0 
C:\Users\elias\AppData\Local\Temp\ccM4DAnB.s:167    .text.cordic_hypotenuse:0000000000000036 .L0 
C:\Users\elias\AppData\Local\Temp\ccM4DAnB.s:168    .text.cordic_hypotenuse:0000000000000036 .L0 
C:\Users\elias\AppData\Local\Temp\ccM4DAnB.s:175    .text.cordic_hypotenuse:0000000000000042 .L0 
C:\Users\elias\AppData\Local\Temp\ccM4DAnB.s:177    .text.cordic_hypotenuse:0000000000000046 .L0 
C:\Users\elias\AppData\Local\Temp\ccM4DAnB.s:184    .text.cordic_cos:0000000000000000 cordic_cos
C:\Users\elias\AppData\Local\Temp\ccM4DAnB.s:187    .text.cordic_cos:0000000000000000 .L0 
C:\Users\elias\AppData\Local\Temp\ccM4DAnB.s:189    .text.cordic_cos:0000000000000000 .L0 
C:\Users\elias\AppData\Local\Temp\ccM4DAnB.s:190    .text.cordic_cos:0000000000000000 .L0 
C:\Users\elias\AppData\Local\Temp\ccM4DAnB.s:191    .text.cordic_cos:0000000000000000 .L0 
C:\Users\elias\AppData\Local\Temp\ccM4DAnB.s:192    .text.cordic_cos:0000000000000000 .L0 
C:\Users\elias\AppData\Local\Temp\ccM4DAnB.s:197    .text.cordic_cos:000000000000000a .L0 
C:\Users\elias\AppData\Local\Temp\ccM4DAnB.s:198    .text.cordic_cos:000000000000000a .L0 
C:\Users\elias\AppData\Local\Temp\ccM4DAnB.s:201    .text.cordic_cos:0000000000000010 .L0 
C:\Users\elias\AppData\Local\Temp\ccM4DAnB.s:203    .text.cordic_cos:0000000000000012 .L0 
C:\Users\elias\AppData\Local\Temp\ccM4DAnB.s:206    .text.cordic_cos:0000000000000016 .L0 
C:\Users\elias\AppData\Local\Temp\ccM4DAnB.s:207    .text.cordic_cos:0000000000000016 .L0 
C:\Users\elias\AppData\Local\Temp\ccM4DAnB.s:208    .text.cordic_cos:0000000000000016 .L0 
C:\Users\elias\AppData\Local\Temp\ccM4DAnB.s:212    .text.cordic_cos:0000000000000020 .L0 
C:\Users\elias\AppData\Local\Temp\ccM4DAnB.s:224    .text.cordic_cos:0000000000000038 .L0 
C:\Users\elias\AppData\Local\Temp\ccM4DAnB.s:229    .text.cordic_cos:000000000000003c .L0 
C:\Users\elias\AppData\Local\Temp\ccM4DAnB.s:232    .text.cordic_cos:000000000000003e .L0 
C:\Users\elias\AppData\Local\Temp\ccM4DAnB.s:235    .text.cordic_cos:0000000000000042 .L0 
C:\Users\elias\AppData\Local\Temp\ccM4DAnB.s:236    .text.cordic_cos:0000000000000042 .L0 
C:\Users\elias\AppData\Local\Temp\ccM4DAnB.s:239    .text.cordic_cos:0000000000000044 .L0 
C:\Users\elias\AppData\Local\Temp\ccM4DAnB.s:240    .text.cordic_cos:0000000000000044 .L0 
C:\Users\elias\AppData\Local\Temp\ccM4DAnB.s:243    .text.cordic_cos:0000000000000046 .L0 
C:\Users\elias\AppData\Local\Temp\ccM4DAnB.s:251    .text.cordic_cos:000000000000004e .L0 
C:\Users\elias\AppData\Local\Temp\ccM4DAnB.s:252    .text.cordic_cos:000000000000004e .L0 
C:\Users\elias\AppData\Local\Temp\ccM4DAnB.s:253    .text.cordic_cos:000000000000004e .L0 
C:\Users\elias\AppData\Local\Temp\ccM4DAnB.s:254    .text.cordic_cos:000000000000004e .L0 
C:\Users\elias\AppData\Local\Temp\ccM4DAnB.s:257    .text.cordic_cos:0000000000000056 .L0 
C:\Users\elias\AppData\Local\Temp\ccM4DAnB.s:259    .text.cordic_cos:000000000000005a .L0 
C:\Users\elias\AppData\Local\Temp\ccM4DAnB.s:262    .text.cordic_cos:000000000000005c .L0 
C:\Users\elias\AppData\Local\Temp\ccM4DAnB.s:264    .text.cordic_cos:000000000000005e .L0 
C:\Users\elias\AppData\Local\Temp\ccM4DAnB.s:267    .text.cordic_cos:0000000000000060 .L0 
C:\Users\elias\AppData\Local\Temp\ccM4DAnB.s:268    .text.cordic_cos:0000000000000060 .L0 
C:\Users\elias\AppData\Local\Temp\ccM4DAnB.s:271    .text.cordic_cos:0000000000000064 .L0 
C:\Users\elias\AppData\Local\Temp\ccM4DAnB.s:272    .text.cordic_cos:0000000000000064 .L0 
C:\Users\elias\AppData\Local\Temp\ccM4DAnB.s:276    .text.cordic_cos:0000000000000068 .L0 
C:\Users\elias\AppData\Local\Temp\ccM4DAnB.s:277    .text.cordic_cos:0000000000000068 .L0 
C:\Users\elias\AppData\Local\Temp\ccM4DAnB.s:283    .text.cordic_cos:0000000000000070 .L0 
C:\Users\elias\AppData\Local\Temp\ccM4DAnB.s:287    .text.cordic_cos:000000000000007a .L0 
C:\Users\elias\AppData\Local\Temp\ccM4DAnB.s:288    .text.cordic_cos:000000000000007a .L0 
C:\Users\elias\AppData\Local\Temp\ccM4DAnB.s:292    .text.cordic_cos:000000000000007e .L0 
C:\Users\elias\AppData\Local\Temp\ccM4DAnB.s:293    .text.cordic_cos:000000000000007e .L0 
C:\Users\elias\AppData\Local\Temp\ccM4DAnB.s:297    .text.cordic_cos:0000000000000080 .L0 
C:\Users\elias\AppData\Local\Temp\ccM4DAnB.s:300    .text.cordic_cos:0000000000000088 .L0 
C:\Users\elias\AppData\Local\Temp\ccM4DAnB.s:307    .text.cordic_sin:0000000000000000 cordic_sin
C:\Users\elias\AppData\Local\Temp\ccM4DAnB.s:310    .text.cordic_sin:0000000000000000 .L0 
C:\Users\elias\AppData\Local\Temp\ccM4DAnB.s:312    .text.cordic_sin:0000000000000000 .L0 
C:\Users\elias\AppData\Local\Temp\ccM4DAnB.s:313    .text.cordic_sin:0000000000000000 .L0 
C:\Users\elias\AppData\Local\Temp\ccM4DAnB.s:314    .text.cordic_sin:0000000000000000 .L0 
C:\Users\elias\AppData\Local\Temp\ccM4DAnB.s:315    .text.cordic_sin:0000000000000000 .L0 
GAS LISTING C:\Users\elias\AppData\Local\Temp\ccM4DAnB.s 			page 72


C:\Users\elias\AppData\Local\Temp\ccM4DAnB.s:320    .text.cordic_sin:000000000000000a .L0 
C:\Users\elias\AppData\Local\Temp\ccM4DAnB.s:321    .text.cordic_sin:000000000000000a .L0 
C:\Users\elias\AppData\Local\Temp\ccM4DAnB.s:324    .text.cordic_sin:0000000000000010 .L0 
C:\Users\elias\AppData\Local\Temp\ccM4DAnB.s:326    .text.cordic_sin:0000000000000012 .L0 
C:\Users\elias\AppData\Local\Temp\ccM4DAnB.s:329    .text.cordic_sin:0000000000000016 .L0 
C:\Users\elias\AppData\Local\Temp\ccM4DAnB.s:330    .text.cordic_sin:0000000000000016 .L0 
C:\Users\elias\AppData\Local\Temp\ccM4DAnB.s:331    .text.cordic_sin:0000000000000016 .L0 
C:\Users\elias\AppData\Local\Temp\ccM4DAnB.s:335    .text.cordic_sin:0000000000000020 .L0 
C:\Users\elias\AppData\Local\Temp\ccM4DAnB.s:347    .text.cordic_sin:0000000000000038 .L0 
C:\Users\elias\AppData\Local\Temp\ccM4DAnB.s:352    .text.cordic_sin:000000000000003c .L0 
C:\Users\elias\AppData\Local\Temp\ccM4DAnB.s:355    .text.cordic_sin:000000000000003e .L0 
C:\Users\elias\AppData\Local\Temp\ccM4DAnB.s:358    .text.cordic_sin:0000000000000042 .L0 
C:\Users\elias\AppData\Local\Temp\ccM4DAnB.s:359    .text.cordic_sin:0000000000000042 .L0 
C:\Users\elias\AppData\Local\Temp\ccM4DAnB.s:362    .text.cordic_sin:0000000000000044 .L0 
C:\Users\elias\AppData\Local\Temp\ccM4DAnB.s:363    .text.cordic_sin:0000000000000044 .L0 
C:\Users\elias\AppData\Local\Temp\ccM4DAnB.s:366    .text.cordic_sin:0000000000000046 .L0 
C:\Users\elias\AppData\Local\Temp\ccM4DAnB.s:374    .text.cordic_sin:000000000000004e .L0 
C:\Users\elias\AppData\Local\Temp\ccM4DAnB.s:375    .text.cordic_sin:000000000000004e .L0 
C:\Users\elias\AppData\Local\Temp\ccM4DAnB.s:376    .text.cordic_sin:000000000000004e .L0 
C:\Users\elias\AppData\Local\Temp\ccM4DAnB.s:377    .text.cordic_sin:000000000000004e .L0 
C:\Users\elias\AppData\Local\Temp\ccM4DAnB.s:380    .text.cordic_sin:0000000000000056 .L0 
C:\Users\elias\AppData\Local\Temp\ccM4DAnB.s:382    .text.cordic_sin:000000000000005a .L0 
C:\Users\elias\AppData\Local\Temp\ccM4DAnB.s:385    .text.cordic_sin:000000000000005c .L0 
C:\Users\elias\AppData\Local\Temp\ccM4DAnB.s:387    .text.cordic_sin:000000000000005e .L0 
C:\Users\elias\AppData\Local\Temp\ccM4DAnB.s:390    .text.cordic_sin:0000000000000060 .L0 
C:\Users\elias\AppData\Local\Temp\ccM4DAnB.s:391    .text.cordic_sin:0000000000000060 .L0 
C:\Users\elias\AppData\Local\Temp\ccM4DAnB.s:394    .text.cordic_sin:0000000000000064 .L0 
C:\Users\elias\AppData\Local\Temp\ccM4DAnB.s:395    .text.cordic_sin:0000000000000064 .L0 
C:\Users\elias\AppData\Local\Temp\ccM4DAnB.s:399    .text.cordic_sin:0000000000000068 .L0 
C:\Users\elias\AppData\Local\Temp\ccM4DAnB.s:400    .text.cordic_sin:0000000000000068 .L0 
C:\Users\elias\AppData\Local\Temp\ccM4DAnB.s:406    .text.cordic_sin:0000000000000070 .L0 
C:\Users\elias\AppData\Local\Temp\ccM4DAnB.s:410    .text.cordic_sin:000000000000007a .L0 
C:\Users\elias\AppData\Local\Temp\ccM4DAnB.s:411    .text.cordic_sin:000000000000007a .L0 
C:\Users\elias\AppData\Local\Temp\ccM4DAnB.s:415    .text.cordic_sin:000000000000007e .L0 
C:\Users\elias\AppData\Local\Temp\ccM4DAnB.s:416    .text.cordic_sin:000000000000007e .L0 
C:\Users\elias\AppData\Local\Temp\ccM4DAnB.s:420    .text.cordic_sin:0000000000000080 .L0 
C:\Users\elias\AppData\Local\Temp\ccM4DAnB.s:423    .text.cordic_sin:0000000000000088 .L0 
C:\Users\elias\AppData\Local\Temp\ccM4DAnB.s:430    .text.cordic_asin:0000000000000000 cordic_asin
C:\Users\elias\AppData\Local\Temp\ccM4DAnB.s:433    .text.cordic_asin:0000000000000000 .L0 
C:\Users\elias\AppData\Local\Temp\ccM4DAnB.s:435    .text.cordic_asin:0000000000000000 .L0 
C:\Users\elias\AppData\Local\Temp\ccM4DAnB.s:436    .text.cordic_asin:0000000000000000 .L0 
C:\Users\elias\AppData\Local\Temp\ccM4DAnB.s:438    .text.cordic_asin:0000000000000000 .L0 
C:\Users\elias\AppData\Local\Temp\ccM4DAnB.s:439    .text.cordic_asin:0000000000000000 .L0 
C:\Users\elias\AppData\Local\Temp\ccM4DAnB.s:442    .text.cordic_asin:0000000000000004 .L0 
C:\Users\elias\AppData\Local\Temp\ccM4DAnB.s:447    .text.cordic_asin:000000000000000e .L0 
C:\Users\elias\AppData\Local\Temp\ccM4DAnB.s:450    .text.cordic_asin:0000000000000010 .L0 
C:\Users\elias\AppData\Local\Temp\ccM4DAnB.s:452    .text.cordic_asin:0000000000000012 .L0 
C:\Users\elias\AppData\Local\Temp\ccM4DAnB.s:454    .text.cordic_asin:0000000000000014 .L0 
C:\Users\elias\AppData\Local\Temp\ccM4DAnB.s:457    .text.cordic_asin:0000000000000018 .L0 
C:\Users\elias\AppData\Local\Temp\ccM4DAnB.s:462    .text.cordic_asin:000000000000001c .L0 
C:\Users\elias\AppData\Local\Temp\ccM4DAnB.s:465    .text.cordic_asin:000000000000001e .L0 
C:\Users\elias\AppData\Local\Temp\ccM4DAnB.s:468    .text.cordic_asin:0000000000000022 .L0 
C:\Users\elias\AppData\Local\Temp\ccM4DAnB.s:469    .text.cordic_asin:0000000000000022 .L0 
C:\Users\elias\AppData\Local\Temp\ccM4DAnB.s:472    .text.cordic_asin:0000000000000024 .L0 
C:\Users\elias\AppData\Local\Temp\ccM4DAnB.s:473    .text.cordic_asin:0000000000000024 .L0 
C:\Users\elias\AppData\Local\Temp\ccM4DAnB.s:476    .text.cordic_asin:0000000000000026 .L0 
C:\Users\elias\AppData\Local\Temp\ccM4DAnB.s:483    .text.cordic_asin:0000000000000030 .L0 
GAS LISTING C:\Users\elias\AppData\Local\Temp\ccM4DAnB.s 			page 73


C:\Users\elias\AppData\Local\Temp\ccM4DAnB.s:484    .text.cordic_asin:0000000000000030 .L0 
C:\Users\elias\AppData\Local\Temp\ccM4DAnB.s:485    .text.cordic_asin:0000000000000030 .L0 
C:\Users\elias\AppData\Local\Temp\ccM4DAnB.s:486    .text.cordic_asin:0000000000000030 .L0 
C:\Users\elias\AppData\Local\Temp\ccM4DAnB.s:489    .text.cordic_asin:0000000000000038 .L0 
C:\Users\elias\AppData\Local\Temp\ccM4DAnB.s:491    .text.cordic_asin:000000000000003c .L0 
C:\Users\elias\AppData\Local\Temp\ccM4DAnB.s:494    .text.cordic_asin:000000000000003e .L0 
C:\Users\elias\AppData\Local\Temp\ccM4DAnB.s:497    .text.cordic_asin:0000000000000042 .L0 
C:\Users\elias\AppData\Local\Temp\ccM4DAnB.s:500    .text.cordic_asin:0000000000000044 .L0 
C:\Users\elias\AppData\Local\Temp\ccM4DAnB.s:501    .text.cordic_asin:0000000000000044 .L0 
C:\Users\elias\AppData\Local\Temp\ccM4DAnB.s:504    .text.cordic_asin:0000000000000048 .L0 
C:\Users\elias\AppData\Local\Temp\ccM4DAnB.s:505    .text.cordic_asin:0000000000000048 .L0 
C:\Users\elias\AppData\Local\Temp\ccM4DAnB.s:509    .text.cordic_asin:000000000000004c .L0 
C:\Users\elias\AppData\Local\Temp\ccM4DAnB.s:517    .text.cordic_asin:0000000000000058 .L0 
C:\Users\elias\AppData\Local\Temp\ccM4DAnB.s:518    .text.cordic_asin:0000000000000058 .L0 
C:\Users\elias\AppData\Local\Temp\ccM4DAnB.s:524    .text.cordic_asin:0000000000000062 .L0 
C:\Users\elias\AppData\Local\Temp\ccM4DAnB.s:527    .text.cordic_asin:0000000000000064 .L0 
C:\Users\elias\AppData\Local\Temp\ccM4DAnB.s:529    .text.cordic_asin:0000000000000066 .L0 
C:\Users\elias\AppData\Local\Temp\ccM4DAnB.s:535    .text.cordic_asin:000000000000006a .L0 
C:\Users\elias\AppData\Local\Temp\ccM4DAnB.s:536    .text.cordic_asin:000000000000006a .L0 
C:\Users\elias\AppData\Local\Temp\ccM4DAnB.s:540    .text.cordic_asin:0000000000000076 .L0 
C:\Users\elias\AppData\Local\Temp\ccM4DAnB.s:547    .text.cordic_acos:0000000000000000 cordic_acos
C:\Users\elias\AppData\Local\Temp\ccM4DAnB.s:550    .text.cordic_acos:0000000000000000 .L0 
C:\Users\elias\AppData\Local\Temp\ccM4DAnB.s:552    .text.cordic_acos:0000000000000000 .L0 
C:\Users\elias\AppData\Local\Temp\ccM4DAnB.s:553    .text.cordic_acos:0000000000000000 .L0 
C:\Users\elias\AppData\Local\Temp\ccM4DAnB.s:555    .text.cordic_acos:0000000000000000 .L0 
C:\Users\elias\AppData\Local\Temp\ccM4DAnB.s:556    .text.cordic_acos:0000000000000000 .L0 
C:\Users\elias\AppData\Local\Temp\ccM4DAnB.s:559    .text.cordic_acos:0000000000000004 .L0 
C:\Users\elias\AppData\Local\Temp\ccM4DAnB.s:561    .text.cordic_acos:0000000000000006 .L0 
C:\Users\elias\AppData\Local\Temp\ccM4DAnB.s:564    .text.cordic_acos:000000000000000c .L0 
C:\Users\elias\AppData\Local\Temp\ccM4DAnB.s:567    .text.cordic_acos:0000000000000010 .L0 
C:\Users\elias\AppData\Local\Temp\ccM4DAnB.s:570    .text.cordic_acos:0000000000000012 .L0 
C:\Users\elias\AppData\Local\Temp\ccM4DAnB.s:572    .text.cordic_acos:0000000000000016 .L0 
C:\Users\elias\AppData\Local\Temp\ccM4DAnB.s:574    .text.cordic_acos:000000000000001a .L0 
C:\Users\elias\AppData\Local\Temp\ccM4DAnB.s:577    .text.cordic_acos:000000000000001c .L0 
C:\Users\elias\AppData\Local\Temp\ccM4DAnB.s:582    .text.cordic_acos:0000000000000020 .L0 
C:\Users\elias\AppData\Local\Temp\ccM4DAnB.s:585    .text.cordic_acos:0000000000000022 .L0 
C:\Users\elias\AppData\Local\Temp\ccM4DAnB.s:588    .text.cordic_acos:0000000000000026 .L0 
C:\Users\elias\AppData\Local\Temp\ccM4DAnB.s:589    .text.cordic_acos:0000000000000026 .L0 
C:\Users\elias\AppData\Local\Temp\ccM4DAnB.s:592    .text.cordic_acos:0000000000000028 .L0 
C:\Users\elias\AppData\Local\Temp\ccM4DAnB.s:593    .text.cordic_acos:0000000000000028 .L0 
C:\Users\elias\AppData\Local\Temp\ccM4DAnB.s:596    .text.cordic_acos:000000000000002a .L0 
C:\Users\elias\AppData\Local\Temp\ccM4DAnB.s:603    .text.cordic_acos:0000000000000034 .L0 
C:\Users\elias\AppData\Local\Temp\ccM4DAnB.s:604    .text.cordic_acos:0000000000000034 .L0 
C:\Users\elias\AppData\Local\Temp\ccM4DAnB.s:605    .text.cordic_acos:0000000000000034 .L0 
C:\Users\elias\AppData\Local\Temp\ccM4DAnB.s:606    .text.cordic_acos:0000000000000034 .L0 
C:\Users\elias\AppData\Local\Temp\ccM4DAnB.s:609    .text.cordic_acos:000000000000003c .L0 
C:\Users\elias\AppData\Local\Temp\ccM4DAnB.s:611    .text.cordic_acos:0000000000000040 .L0 
C:\Users\elias\AppData\Local\Temp\ccM4DAnB.s:614    .text.cordic_acos:0000000000000042 .L0 
C:\Users\elias\AppData\Local\Temp\ccM4DAnB.s:617    .text.cordic_acos:0000000000000046 .L0 
C:\Users\elias\AppData\Local\Temp\ccM4DAnB.s:620    .text.cordic_acos:0000000000000048 .L0 
C:\Users\elias\AppData\Local\Temp\ccM4DAnB.s:621    .text.cordic_acos:0000000000000048 .L0 
C:\Users\elias\AppData\Local\Temp\ccM4DAnB.s:624    .text.cordic_acos:000000000000004c .L0 
C:\Users\elias\AppData\Local\Temp\ccM4DAnB.s:625    .text.cordic_acos:000000000000004c .L0 
C:\Users\elias\AppData\Local\Temp\ccM4DAnB.s:629    .text.cordic_acos:0000000000000050 .L0 
C:\Users\elias\AppData\Local\Temp\ccM4DAnB.s:630    .text.cordic_acos:0000000000000050 .L0 
C:\Users\elias\AppData\Local\Temp\ccM4DAnB.s:635    .text.cordic_acos:000000000000005a .L0 
C:\Users\elias\AppData\Local\Temp\ccM4DAnB.s:639    .text.cordic_acos:000000000000005c .L0 
GAS LISTING C:\Users\elias\AppData\Local\Temp\ccM4DAnB.s 			page 74


C:\Users\elias\AppData\Local\Temp\ccM4DAnB.s:640    .text.cordic_acos:000000000000005c .L0 
C:\Users\elias\AppData\Local\Temp\ccM4DAnB.s:643    .text.cordic_acos:0000000000000060 .L0 
C:\Users\elias\AppData\Local\Temp\ccM4DAnB.s:650    .text.cordic_tan:0000000000000000 cordic_tan
C:\Users\elias\AppData\Local\Temp\ccM4DAnB.s:653    .text.cordic_tan:0000000000000000 .L0 
C:\Users\elias\AppData\Local\Temp\ccM4DAnB.s:655    .text.cordic_tan:0000000000000000 .L0 
C:\Users\elias\AppData\Local\Temp\ccM4DAnB.s:656    .text.cordic_tan:0000000000000000 .L0 
C:\Users\elias\AppData\Local\Temp\ccM4DAnB.s:657    .text.cordic_tan:0000000000000000 .L0 
C:\Users\elias\AppData\Local\Temp\ccM4DAnB.s:658    .text.cordic_tan:0000000000000000 .L0 
C:\Users\elias\AppData\Local\Temp\ccM4DAnB.s:663    .text.cordic_tan:000000000000000a .L0 
C:\Users\elias\AppData\Local\Temp\ccM4DAnB.s:664    .text.cordic_tan:000000000000000a .L0 
C:\Users\elias\AppData\Local\Temp\ccM4DAnB.s:667    .text.cordic_tan:0000000000000010 .L0 
C:\Users\elias\AppData\Local\Temp\ccM4DAnB.s:669    .text.cordic_tan:0000000000000012 .L0 
C:\Users\elias\AppData\Local\Temp\ccM4DAnB.s:672    .text.cordic_tan:0000000000000016 .L0 
C:\Users\elias\AppData\Local\Temp\ccM4DAnB.s:673    .text.cordic_tan:0000000000000016 .L0 
C:\Users\elias\AppData\Local\Temp\ccM4DAnB.s:674    .text.cordic_tan:0000000000000016 .L0 
C:\Users\elias\AppData\Local\Temp\ccM4DAnB.s:678    .text.cordic_tan:0000000000000020 .L0 
C:\Users\elias\AppData\Local\Temp\ccM4DAnB.s:690    .text.cordic_tan:0000000000000038 .L0 
C:\Users\elias\AppData\Local\Temp\ccM4DAnB.s:695    .text.cordic_tan:000000000000003c .L0 
C:\Users\elias\AppData\Local\Temp\ccM4DAnB.s:698    .text.cordic_tan:000000000000003e .L0 
C:\Users\elias\AppData\Local\Temp\ccM4DAnB.s:701    .text.cordic_tan:0000000000000042 .L0 
C:\Users\elias\AppData\Local\Temp\ccM4DAnB.s:702    .text.cordic_tan:0000000000000042 .L0 
C:\Users\elias\AppData\Local\Temp\ccM4DAnB.s:705    .text.cordic_tan:0000000000000044 .L0 
C:\Users\elias\AppData\Local\Temp\ccM4DAnB.s:706    .text.cordic_tan:0000000000000044 .L0 
C:\Users\elias\AppData\Local\Temp\ccM4DAnB.s:709    .text.cordic_tan:0000000000000046 .L0 
C:\Users\elias\AppData\Local\Temp\ccM4DAnB.s:717    .text.cordic_tan:0000000000000050 .L0 
C:\Users\elias\AppData\Local\Temp\ccM4DAnB.s:718    .text.cordic_tan:0000000000000050 .L0 
C:\Users\elias\AppData\Local\Temp\ccM4DAnB.s:719    .text.cordic_tan:0000000000000050 .L0 
C:\Users\elias\AppData\Local\Temp\ccM4DAnB.s:720    .text.cordic_tan:0000000000000050 .L0 
C:\Users\elias\AppData\Local\Temp\ccM4DAnB.s:723    .text.cordic_tan:0000000000000058 .L0 
C:\Users\elias\AppData\Local\Temp\ccM4DAnB.s:725    .text.cordic_tan:000000000000005c .L0 
C:\Users\elias\AppData\Local\Temp\ccM4DAnB.s:728    .text.cordic_tan:000000000000005e .L0 
C:\Users\elias\AppData\Local\Temp\ccM4DAnB.s:730    .text.cordic_tan:0000000000000062 .L0 
C:\Users\elias\AppData\Local\Temp\ccM4DAnB.s:733    .text.cordic_tan:0000000000000064 .L0 
C:\Users\elias\AppData\Local\Temp\ccM4DAnB.s:734    .text.cordic_tan:0000000000000064 .L0 
C:\Users\elias\AppData\Local\Temp\ccM4DAnB.s:737    .text.cordic_tan:0000000000000068 .L0 
C:\Users\elias\AppData\Local\Temp\ccM4DAnB.s:738    .text.cordic_tan:0000000000000068 .L0 
C:\Users\elias\AppData\Local\Temp\ccM4DAnB.s:742    .text.cordic_tan:000000000000006c .L0 
C:\Users\elias\AppData\Local\Temp\ccM4DAnB.s:743    .text.cordic_tan:000000000000006c .L0 
C:\Users\elias\AppData\Local\Temp\ccM4DAnB.s:749    .text.cordic_tan:0000000000000074 .L0 
C:\Users\elias\AppData\Local\Temp\ccM4DAnB.s:753    .text.cordic_tan:000000000000007e .L0 
C:\Users\elias\AppData\Local\Temp\ccM4DAnB.s:754    .text.cordic_tan:000000000000007e .L0 
C:\Users\elias\AppData\Local\Temp\ccM4DAnB.s:757    .text.cordic_tan:0000000000000082 .L0 
C:\Users\elias\AppData\Local\Temp\ccM4DAnB.s:758    .text.cordic_tan:0000000000000082 .L0 
C:\Users\elias\AppData\Local\Temp\ccM4DAnB.s:762    .text.cordic_tan:0000000000000086 .L0 
C:\Users\elias\AppData\Local\Temp\ccM4DAnB.s:763    .text.cordic_tan:0000000000000086 .L0 
C:\Users\elias\AppData\Local\Temp\ccM4DAnB.s:766    .text.cordic_tan:0000000000000088 .L0 
C:\Users\elias\AppData\Local\Temp\ccM4DAnB.s:772    .text.cordic_tan:000000000000008e .L0 
C:\Users\elias\AppData\Local\Temp\ccM4DAnB.s:775    .text.cordic_tan:0000000000000096 .L0 
C:\Users\elias\AppData\Local\Temp\ccM4DAnB.s:782    .text.cordic_rectangular_polar:0000000000000000 cordic_rectangular_polar
C:\Users\elias\AppData\Local\Temp\ccM4DAnB.s:785    .text.cordic_rectangular_polar:0000000000000000 .L0 
C:\Users\elias\AppData\Local\Temp\ccM4DAnB.s:787    .text.cordic_rectangular_polar:0000000000000000 .L0 
C:\Users\elias\AppData\Local\Temp\ccM4DAnB.s:788    .text.cordic_rectangular_polar:0000000000000000 .L0 
C:\Users\elias\AppData\Local\Temp\ccM4DAnB.s:789    .text.cordic_rectangular_polar:0000000000000000 .L0 
C:\Users\elias\AppData\Local\Temp\ccM4DAnB.s:792    .text.cordic_rectangular_polar:0000000000000002 .L0 
C:\Users\elias\AppData\Local\Temp\ccM4DAnB.s:795    .text.cordic_rectangular_polar:0000000000000004 .L0 
C:\Users\elias\AppData\Local\Temp\ccM4DAnB.s:796    .text.cordic_rectangular_polar:0000000000000004 .L0 
C:\Users\elias\AppData\Local\Temp\ccM4DAnB.s:798    .text.cordic_rectangular_polar:0000000000000006 .L0 
GAS LISTING C:\Users\elias\AppData\Local\Temp\ccM4DAnB.s 			page 75


C:\Users\elias\AppData\Local\Temp\ccM4DAnB.s:803    .text.cordic_rectangular_polar:000000000000000e .L0 
C:\Users\elias\AppData\Local\Temp\ccM4DAnB.s:809    .text.cordic_rectangular_polar:000000000000001a .L0 
C:\Users\elias\AppData\Local\Temp\ccM4DAnB.s:814    .text.cordic_rectangular_polar:000000000000001e .L0 
C:\Users\elias\AppData\Local\Temp\ccM4DAnB.s:817    .text.cordic_rectangular_polar:0000000000000020 .L0 
C:\Users\elias\AppData\Local\Temp\ccM4DAnB.s:820    .text.cordic_rectangular_polar:0000000000000022 .L0 
C:\Users\elias\AppData\Local\Temp\ccM4DAnB.s:821    .text.cordic_rectangular_polar:0000000000000022 .L0 
C:\Users\elias\AppData\Local\Temp\ccM4DAnB.s:824    .text.cordic_rectangular_polar:0000000000000026 .L0 
C:\Users\elias\AppData\Local\Temp\ccM4DAnB.s:825    .text.cordic_rectangular_polar:0000000000000026 .L0 
C:\Users\elias\AppData\Local\Temp\ccM4DAnB.s:828    .text.cordic_rectangular_polar:0000000000000028 .L0 
C:\Users\elias\AppData\Local\Temp\ccM4DAnB.s:836    .text.cordic_rectangular_polar:0000000000000032 .L0 
C:\Users\elias\AppData\Local\Temp\ccM4DAnB.s:837    .text.cordic_rectangular_polar:0000000000000032 .L0 
C:\Users\elias\AppData\Local\Temp\ccM4DAnB.s:838    .text.cordic_rectangular_polar:0000000000000032 .L0 
C:\Users\elias\AppData\Local\Temp\ccM4DAnB.s:839    .text.cordic_rectangular_polar:0000000000000032 .L0 
C:\Users\elias\AppData\Local\Temp\ccM4DAnB.s:842    .text.cordic_rectangular_polar:000000000000003a .L0 
C:\Users\elias\AppData\Local\Temp\ccM4DAnB.s:844    .text.cordic_rectangular_polar:000000000000003e .L0 
C:\Users\elias\AppData\Local\Temp\ccM4DAnB.s:847    .text.cordic_rectangular_polar:0000000000000040 .L0 
C:\Users\elias\AppData\Local\Temp\ccM4DAnB.s:849    .text.cordic_rectangular_polar:0000000000000044 .L0 
C:\Users\elias\AppData\Local\Temp\ccM4DAnB.s:852    .text.cordic_rectangular_polar:0000000000000048 .L0 
C:\Users\elias\AppData\Local\Temp\ccM4DAnB.s:853    .text.cordic_rectangular_polar:0000000000000048 .L0 
C:\Users\elias\AppData\Local\Temp\ccM4DAnB.s:856    .text.cordic_rectangular_polar:000000000000004a .L0 
C:\Users\elias\AppData\Local\Temp\ccM4DAnB.s:857    .text.cordic_rectangular_polar:000000000000004a .L0 
C:\Users\elias\AppData\Local\Temp\ccM4DAnB.s:861    .text.cordic_rectangular_polar:000000000000004e .L0 
C:\Users\elias\AppData\Local\Temp\ccM4DAnB.s:862    .text.cordic_rectangular_polar:000000000000004e .L0 
C:\Users\elias\AppData\Local\Temp\ccM4DAnB.s:869    .text.cordic_rectangular_polar:000000000000005a .L0 
C:\Users\elias\AppData\Local\Temp\ccM4DAnB.s:871    .text.cordic_rectangular_polar:000000000000005c .L0 
C:\Users\elias\AppData\Local\Temp\ccM4DAnB.s:873    .text.cordic_rectangular_polar:000000000000005e .L0 
C:\Users\elias\AppData\Local\Temp\ccM4DAnB.s:874    .text.cordic_rectangular_polar:000000000000005e .L0 
C:\Users\elias\AppData\Local\Temp\ccM4DAnB.s:876    .text.cordic_rectangular_polar:0000000000000060 .L0 
C:\Users\elias\AppData\Local\Temp\ccM4DAnB.s:877    .text.cordic_rectangular_polar:0000000000000060 .L0 
C:\Users\elias\AppData\Local\Temp\ccM4DAnB.s:883    .text.cordic_rectangular_polar:0000000000000064 .L0 
C:\Users\elias\AppData\Local\Temp\ccM4DAnB.s:888    .text.cordic_rectangular_polar:000000000000006e .L0 
C:\Users\elias\AppData\Local\Temp\ccM4DAnB.s:890    .text.cordic_rectangular_polar:0000000000000072 .L0 
C:\Users\elias\AppData\Local\Temp\ccM4DAnB.s:892    .text.cordic_rectangular_polar:0000000000000072 .L0 
C:\Users\elias\AppData\Local\Temp\ccM4DAnB.s:893    .text.cordic_rectangular_polar:0000000000000072 .L0 
C:\Users\elias\AppData\Local\Temp\ccM4DAnB.s:894    .text.cordic_rectangular_polar:0000000000000072 .L0 
C:\Users\elias\AppData\Local\Temp\ccM4DAnB.s:895    .text.cordic_rectangular_polar:0000000000000072 .L0 
C:\Users\elias\AppData\Local\Temp\ccM4DAnB.s:898    .text.cordic_rectangular_polar:0000000000000072 .L0 
C:\Users\elias\AppData\Local\Temp\ccM4DAnB.s:899    .text.cordic_rectangular_polar:0000000000000072 .L0 
C:\Users\elias\AppData\Local\Temp\ccM4DAnB.s:902    .text.cordic_rectangular_polar:0000000000000072 .L0 
C:\Users\elias\AppData\Local\Temp\ccM4DAnB.s:903    .text.cordic_rectangular_polar:0000000000000072 .L0 
C:\Users\elias\AppData\Local\Temp\ccM4DAnB.s:907    .text.cordic_rectangular_polar:0000000000000074 .L0 
C:\Users\elias\AppData\Local\Temp\ccM4DAnB.s:912    .text.cordic_rectangular_polar:0000000000000078 .L0 
C:\Users\elias\AppData\Local\Temp\ccM4DAnB.s:914    .text.cordic_rectangular_polar:000000000000007e .L0 
C:\Users\elias\AppData\Local\Temp\ccM4DAnB.s:921    .text.cordic_polar_rectangular:0000000000000000 cordic_polar_rectangular
C:\Users\elias\AppData\Local\Temp\ccM4DAnB.s:924    .text.cordic_polar_rectangular:0000000000000000 .L0 
C:\Users\elias\AppData\Local\Temp\ccM4DAnB.s:926    .text.cordic_polar_rectangular:0000000000000000 .L0 
C:\Users\elias\AppData\Local\Temp\ccM4DAnB.s:927    .text.cordic_polar_rectangular:0000000000000000 .L0 
C:\Users\elias\AppData\Local\Temp\ccM4DAnB.s:928    .text.cordic_polar_rectangular:0000000000000000 .L0 
C:\Users\elias\AppData\Local\Temp\ccM4DAnB.s:929    .text.cordic_polar_rectangular:0000000000000000 .L0 
C:\Users\elias\AppData\Local\Temp\ccM4DAnB.s:934    .text.cordic_polar_rectangular:000000000000000e .L0 
C:\Users\elias\AppData\Local\Temp\ccM4DAnB.s:936    .text.cordic_polar_rectangular:0000000000000010 .L0 
C:\Users\elias\AppData\Local\Temp\ccM4DAnB.s:938    .text.cordic_polar_rectangular:0000000000000012 .L0 
C:\Users\elias\AppData\Local\Temp\ccM4DAnB.s:940    .text.cordic_polar_rectangular:0000000000000016 .L0 
C:\Users\elias\AppData\Local\Temp\ccM4DAnB.s:942    .text.cordic_polar_rectangular:000000000000001a .L0 
C:\Users\elias\AppData\Local\Temp\ccM4DAnB.s:944    .text.cordic_polar_rectangular:000000000000001c .L0 
C:\Users\elias\AppData\Local\Temp\ccM4DAnB.s:946    .text.cordic_polar_rectangular:0000000000000020 .L0 
C:\Users\elias\AppData\Local\Temp\ccM4DAnB.s:947    .text.cordic_polar_rectangular:0000000000000020 .L0 
GAS LISTING C:\Users\elias\AppData\Local\Temp\ccM4DAnB.s 			page 76


C:\Users\elias\AppData\Local\Temp\ccM4DAnB.s:949    .text.cordic_polar_rectangular:0000000000000022 .L0 
C:\Users\elias\AppData\Local\Temp\ccM4DAnB.s:951    .text.cordic_polar_rectangular:0000000000000026 .L0 
C:\Users\elias\AppData\Local\Temp\ccM4DAnB.s:953    .text.cordic_polar_rectangular:000000000000002a .L0 
C:\Users\elias\AppData\Local\Temp\ccM4DAnB.s:964    .text.cordic_polar_rectangular:0000000000000040 .L0 
C:\Users\elias\AppData\Local\Temp\ccM4DAnB.s:969    .text.cordic_polar_rectangular:0000000000000044 .L0 
C:\Users\elias\AppData\Local\Temp\ccM4DAnB.s:972    .text.cordic_polar_rectangular:0000000000000046 .L0 
C:\Users\elias\AppData\Local\Temp\ccM4DAnB.s:975    .text.cordic_polar_rectangular:000000000000004a .L0 
C:\Users\elias\AppData\Local\Temp\ccM4DAnB.s:976    .text.cordic_polar_rectangular:000000000000004a .L0 
C:\Users\elias\AppData\Local\Temp\ccM4DAnB.s:979    .text.cordic_polar_rectangular:000000000000004c .L0 
C:\Users\elias\AppData\Local\Temp\ccM4DAnB.s:980    .text.cordic_polar_rectangular:000000000000004c .L0 
C:\Users\elias\AppData\Local\Temp\ccM4DAnB.s:983    .text.cordic_polar_rectangular:000000000000004e .L0 
C:\Users\elias\AppData\Local\Temp\ccM4DAnB.s:990    .text.cordic_polar_rectangular:0000000000000056 .L0 
C:\Users\elias\AppData\Local\Temp\ccM4DAnB.s:991    .text.cordic_polar_rectangular:0000000000000056 .L0 
C:\Users\elias\AppData\Local\Temp\ccM4DAnB.s:992    .text.cordic_polar_rectangular:0000000000000056 .L0 
C:\Users\elias\AppData\Local\Temp\ccM4DAnB.s:993    .text.cordic_polar_rectangular:0000000000000056 .L0 
C:\Users\elias\AppData\Local\Temp\ccM4DAnB.s:996    .text.cordic_polar_rectangular:000000000000005e .L0 
C:\Users\elias\AppData\Local\Temp\ccM4DAnB.s:998    .text.cordic_polar_rectangular:0000000000000062 .L0 
C:\Users\elias\AppData\Local\Temp\ccM4DAnB.s:1001   .text.cordic_polar_rectangular:0000000000000064 .L0 
C:\Users\elias\AppData\Local\Temp\ccM4DAnB.s:1004   .text.cordic_polar_rectangular:0000000000000066 .L0 
C:\Users\elias\AppData\Local\Temp\ccM4DAnB.s:1007   .text.cordic_polar_rectangular:0000000000000068 .L0 
C:\Users\elias\AppData\Local\Temp\ccM4DAnB.s:1008   .text.cordic_polar_rectangular:0000000000000068 .L0 
C:\Users\elias\AppData\Local\Temp\ccM4DAnB.s:1011   .text.cordic_polar_rectangular:000000000000006c .L0 
C:\Users\elias\AppData\Local\Temp\ccM4DAnB.s:1012   .text.cordic_polar_rectangular:000000000000006c .L0 
C:\Users\elias\AppData\Local\Temp\ccM4DAnB.s:1016   .text.cordic_polar_rectangular:0000000000000070 .L0 
C:\Users\elias\AppData\Local\Temp\ccM4DAnB.s:1017   .text.cordic_polar_rectangular:0000000000000070 .L0 
C:\Users\elias\AppData\Local\Temp\ccM4DAnB.s:1020   .text.cordic_polar_rectangular:0000000000000074 .L0 
C:\Users\elias\AppData\Local\Temp\ccM4DAnB.s:1022   .text.cordic_polar_rectangular:0000000000000076 .L0 
C:\Users\elias\AppData\Local\Temp\ccM4DAnB.s:1025   .text.cordic_polar_rectangular:000000000000007a .L0 
C:\Users\elias\AppData\Local\Temp\ccM4DAnB.s:1027   .text.cordic_polar_rectangular:000000000000007e .L0 
C:\Users\elias\AppData\Local\Temp\ccM4DAnB.s:1029   .text.cordic_polar_rectangular:0000000000000080 .L0 
C:\Users\elias\AppData\Local\Temp\ccM4DAnB.s:1031   .text.cordic_polar_rectangular:0000000000000084 .L0 
C:\Users\elias\AppData\Local\Temp\ccM4DAnB.s:1032   .text.cordic_polar_rectangular:0000000000000084 .L0 
C:\Users\elias\AppData\Local\Temp\ccM4DAnB.s:1034   .text.cordic_polar_rectangular:0000000000000086 .L0 
C:\Users\elias\AppData\Local\Temp\ccM4DAnB.s:1036   .text.cordic_polar_rectangular:000000000000008a .L0 
C:\Users\elias\AppData\Local\Temp\ccM4DAnB.s:1037   .text.cordic_polar_rectangular:000000000000008a .L0 
C:\Users\elias\AppData\Local\Temp\ccM4DAnB.s:1041   .text.cordic_polar_rectangular:000000000000008c .L0 
C:\Users\elias\AppData\Local\Temp\ccM4DAnB.s:1043   .text.cordic_polar_rectangular:0000000000000090 .L0 
C:\Users\elias\AppData\Local\Temp\ccM4DAnB.s:1045   .text.cordic_polar_rectangular:0000000000000094 .L0 
C:\Users\elias\AppData\Local\Temp\ccM4DAnB.s:1052   .text.cordic_sqrt:0000000000000000 cordic_sqrt
C:\Users\elias\AppData\Local\Temp\ccM4DAnB.s:1055   .text.cordic_sqrt:0000000000000000 .L0 
C:\Users\elias\AppData\Local\Temp\ccM4DAnB.s:1057   .text.cordic_sqrt:0000000000000000 .L0 
C:\Users\elias\AppData\Local\Temp\ccM4DAnB.s:1058   .text.cordic_sqrt:0000000000000000 .L0 
C:\Users\elias\AppData\Local\Temp\ccM4DAnB.s:1059   .text.cordic_sqrt:0000000000000000 .L0 
C:\Users\elias\AppData\Local\Temp\ccM4DAnB.s:1060   .text.cordic_sqrt:0000000000000000 .L0 
C:\Users\elias\AppData\Local\Temp\ccM4DAnB.s:1061   .text.cordic_sqrt:0000000000000000 .L0 
C:\Users\elias\AppData\Local\Temp\ccM4DAnB.s:1063   .text.cordic_sqrt:0000000000000002 .L0 
C:\Users\elias\AppData\Local\Temp\ccM4DAnB.s:1065   .text.cordic_sqrt:0000000000000004 .L0 
C:\Users\elias\AppData\Local\Temp\ccM4DAnB.s:1066   .text.cordic_sqrt:0000000000000004 .L0 
C:\Users\elias\AppData\Local\Temp\ccM4DAnB.s:1070   .text.cordic_sqrt:000000000000000c .L0 
C:\Users\elias\AppData\Local\Temp\ccM4DAnB.s:1071   .text.cordic_sqrt:000000000000000c .L0 
C:\Users\elias\AppData\Local\Temp\ccM4DAnB.s:1072   .text.cordic_sqrt:000000000000000c .L0 
C:\Users\elias\AppData\Local\Temp\ccM4DAnB.s:1075   .text.cordic_sqrt:0000000000000014 .L0 
C:\Users\elias\AppData\Local\Temp\ccM4DAnB.s:1079   .text.cordic_sqrt:0000000000000018 .L0 
C:\Users\elias\AppData\Local\Temp\ccM4DAnB.s:1080   .text.cordic_sqrt:0000000000000018 .L0 
C:\Users\elias\AppData\Local\Temp\ccM4DAnB.s:1083   .text.cordic_sqrt:000000000000001a .L0 
C:\Users\elias\AppData\Local\Temp\ccM4DAnB.s:1085   .text.cordic_sqrt:000000000000001e .L0 
C:\Users\elias\AppData\Local\Temp\ccM4DAnB.s:1087   .text.cordic_sqrt:0000000000000020 .L0 
GAS LISTING C:\Users\elias\AppData\Local\Temp\ccM4DAnB.s 			page 77


C:\Users\elias\AppData\Local\Temp\ccM4DAnB.s:1092   .text.cordic_sqrt:0000000000000028 .L0 
C:\Users\elias\AppData\Local\Temp\ccM4DAnB.s:1097   .text.cordic_sqrt:000000000000002a .L0 
C:\Users\elias\AppData\Local\Temp\ccM4DAnB.s:1098   .text.cordic_sqrt:000000000000002a .L0 
C:\Users\elias\AppData\Local\Temp\ccM4DAnB.s:1099   .text.cordic_sqrt:000000000000002a .L0 
C:\Users\elias\AppData\Local\Temp\ccM4DAnB.s:1101   .text.cordic_sqrt:000000000000002e .L0 
C:\Users\elias\AppData\Local\Temp\ccM4DAnB.s:1107   .text.cordic_sqrt:0000000000000036 .L0 
C:\Users\elias\AppData\Local\Temp\ccM4DAnB.s:1109   .text.cordic_sqrt:0000000000000038 .L0 
C:\Users\elias\AppData\Local\Temp\ccM4DAnB.s:1111   .text.cordic_sqrt:000000000000003c .L0 
C:\Users\elias\AppData\Local\Temp\ccM4DAnB.s:1115   .text.cordic_sqrt:000000000000003e .L0 
C:\Users\elias\AppData\Local\Temp\ccM4DAnB.s:1120   .text.cordic_sqrt:0000000000000040 .L0 
C:\Users\elias\AppData\Local\Temp\ccM4DAnB.s:1126   .text.cordic_sqrt:0000000000000044 .L0 
C:\Users\elias\AppData\Local\Temp\ccM4DAnB.s:1130   .text.cordic_sqrt:0000000000000048 .L0 
C:\Users\elias\AppData\Local\Temp\ccM4DAnB.s:1131   .text.cordic_sqrt:0000000000000048 .L0 
C:\Users\elias\AppData\Local\Temp\ccM4DAnB.s:1134   .text.cordic_sqrt:000000000000004a .L0 
C:\Users\elias\AppData\Local\Temp\ccM4DAnB.s:1136   .text.cordic_sqrt:000000000000004e .L0 
C:\Users\elias\AppData\Local\Temp\ccM4DAnB.s:1138   .text.cordic_sqrt:0000000000000050 .L0 
C:\Users\elias\AppData\Local\Temp\ccM4DAnB.s:1143   .text.cordic_sqrt:000000000000005a .L0 
C:\Users\elias\AppData\Local\Temp\ccM4DAnB.s:1146   .text.cordic_sqrt:000000000000005c .L0 
C:\Users\elias\AppData\Local\Temp\ccM4DAnB.s:1151   .text.cordic_sqrt:0000000000000062 .L0 
C:\Users\elias\AppData\Local\Temp\ccM4DAnB.s:1154   .text.cordic_sqrt:000000000000006c .L0 
C:\Users\elias\AppData\Local\Temp\ccM4DAnB.s:1161   .text.cordic_arctanh:0000000000000000 cordic_arctanh
C:\Users\elias\AppData\Local\Temp\ccM4DAnB.s:1164   .text.cordic_arctanh:0000000000000000 .L0 
C:\Users\elias\AppData\Local\Temp\ccM4DAnB.s:1166   .text.cordic_arctanh:0000000000000000 .L0 
C:\Users\elias\AppData\Local\Temp\ccM4DAnB.s:1167   .text.cordic_arctanh:0000000000000000 .L0 
C:\Users\elias\AppData\Local\Temp\ccM4DAnB.s:1169   .text.cordic_arctanh:0000000000000000 .L0 
C:\Users\elias\AppData\Local\Temp\ccM4DAnB.s:1171   .text.cordic_arctanh:0000000000000000 .L0 
C:\Users\elias\AppData\Local\Temp\ccM4DAnB.s:1172   .text.cordic_arctanh:0000000000000000 .L0 
C:\Users\elias\AppData\Local\Temp\ccM4DAnB.s:1175   .text.cordic_arctanh:0000000000000002 .L0 
C:\Users\elias\AppData\Local\Temp\ccM4DAnB.s:1179   .text.cordic_arctanh:0000000000000008 .L0 
C:\Users\elias\AppData\Local\Temp\ccM4DAnB.s:1183   .text.cordic_arctanh:0000000000000012 .L0 
C:\Users\elias\AppData\Local\Temp\ccM4DAnB.s:1186   .text.cordic_arctanh:0000000000000014 .L0 
C:\Users\elias\AppData\Local\Temp\ccM4DAnB.s:1189   .text.cordic_arctanh:0000000000000016 .L0 
C:\Users\elias\AppData\Local\Temp\ccM4DAnB.s:1192   .text.cordic_arctanh:0000000000000018 .L0 
C:\Users\elias\AppData\Local\Temp\ccM4DAnB.s:1193   .text.cordic_arctanh:0000000000000018 .L0 
C:\Users\elias\AppData\Local\Temp\ccM4DAnB.s:1194   .text.cordic_arctanh:0000000000000018 .L0 
C:\Users\elias\AppData\Local\Temp\ccM4DAnB.s:1195   .text.cordic_arctanh:0000000000000018 .L0 
C:\Users\elias\AppData\Local\Temp\ccM4DAnB.s:1198   .text.cordic_arctanh:0000000000000020 .L0 
C:\Users\elias\AppData\Local\Temp\ccM4DAnB.s:1201   .text.cordic_arctanh:0000000000000024 .L0 
C:\Users\elias\AppData\Local\Temp\ccM4DAnB.s:1204   .text.cordic_arctanh:0000000000000028 .L0 
C:\Users\elias\AppData\Local\Temp\ccM4DAnB.s:1207   .text.cordic_arctanh:000000000000002c .L0 
C:\Users\elias\AppData\Local\Temp\ccM4DAnB.s:1208   .text.cordic_arctanh:000000000000002c .L0 
C:\Users\elias\AppData\Local\Temp\ccM4DAnB.s:1209   .text.cordic_arctanh:000000000000002c .L0 
C:\Users\elias\AppData\Local\Temp\ccM4DAnB.s:1212   .text.cordic_arctanh:000000000000002e .L0 
C:\Users\elias\AppData\Local\Temp\ccM4DAnB.s:1213   .text.cordic_arctanh:000000000000002e .L0 
C:\Users\elias\AppData\Local\Temp\ccM4DAnB.s:1216   .text.cordic_arctanh:0000000000000032 .L0 
C:\Users\elias\AppData\Local\Temp\ccM4DAnB.s:1219   .text.cordic_arctanh:0000000000000034 .L0 
C:\Users\elias\AppData\Local\Temp\ccM4DAnB.s:1226   .text.cordic_arctanh:0000000000000042 .L0 
C:\Users\elias\AppData\Local\Temp\ccM4DAnB.s:1227   .text.cordic_arctanh:0000000000000042 .L0 
C:\Users\elias\AppData\Local\Temp\ccM4DAnB.s:1228   .text.cordic_arctanh:0000000000000042 .L0 
C:\Users\elias\AppData\Local\Temp\ccM4DAnB.s:1229   .text.cordic_arctanh:0000000000000042 .L0 
C:\Users\elias\AppData\Local\Temp\ccM4DAnB.s:1231   .text.cordic_arctanh:0000000000000046 .L0 
C:\Users\elias\AppData\Local\Temp\ccM4DAnB.s:1234   .text.cordic_arctanh:000000000000004a .L0 
C:\Users\elias\AppData\Local\Temp\ccM4DAnB.s:1237   .text.cordic_arctanh:000000000000004c .L0 
C:\Users\elias\AppData\Local\Temp\ccM4DAnB.s:1238   .text.cordic_arctanh:000000000000004c .L0 
C:\Users\elias\AppData\Local\Temp\ccM4DAnB.s:1241   .text.cordic_arctanh:000000000000004e .L0 
C:\Users\elias\AppData\Local\Temp\ccM4DAnB.s:1242   .text.cordic_arctanh:000000000000004e .L0 
C:\Users\elias\AppData\Local\Temp\ccM4DAnB.s:1245   .text.cordic_arctanh:0000000000000052 .L0 
GAS LISTING C:\Users\elias\AppData\Local\Temp\ccM4DAnB.s 			page 78


C:\Users\elias\AppData\Local\Temp\ccM4DAnB.s:1246   .text.cordic_arctanh:0000000000000052 .L0 
C:\Users\elias\AppData\Local\Temp\ccM4DAnB.s:1249   .text.cordic_arctanh:0000000000000056 .L0 
C:\Users\elias\AppData\Local\Temp\ccM4DAnB.s:1250   .text.cordic_arctanh:0000000000000056 .L0 
C:\Users\elias\AppData\Local\Temp\ccM4DAnB.s:1251   .text.cordic_arctanh:0000000000000056 .L0 
C:\Users\elias\AppData\Local\Temp\ccM4DAnB.s:1252   .text.cordic_arctanh:0000000000000056 .L0 
C:\Users\elias\AppData\Local\Temp\ccM4DAnB.s:1258   .text.cordic_arctanh:0000000000000064 .L0 
C:\Users\elias\AppData\Local\Temp\ccM4DAnB.s:1261   .text.cordic_arctanh:0000000000000066 .L0 
C:\Users\elias\AppData\Local\Temp\ccM4DAnB.s:1262   .text.cordic_arctanh:0000000000000066 .L0 
C:\Users\elias\AppData\Local\Temp\ccM4DAnB.s:1263   .text.cordic_arctanh:0000000000000066 .L0 
C:\Users\elias\AppData\Local\Temp\ccM4DAnB.s:1265   .text.cordic_arctanh:000000000000006a .L0 
C:\Users\elias\AppData\Local\Temp\ccM4DAnB.s:1268   .text.cordic_arctanh:000000000000006c .L0 
C:\Users\elias\AppData\Local\Temp\ccM4DAnB.s:1271   .text.cordic_arctanh:000000000000006e .L0 
C:\Users\elias\AppData\Local\Temp\ccM4DAnB.s:1274   .text.cordic_arctanh:0000000000000072 .L0 
C:\Users\elias\AppData\Local\Temp\ccM4DAnB.s:1275   .text.cordic_arctanh:0000000000000072 .L0 
C:\Users\elias\AppData\Local\Temp\ccM4DAnB.s:1278   .text.cordic_arctanh:0000000000000076 .L0 
C:\Users\elias\AppData\Local\Temp\ccM4DAnB.s:1279   .text.cordic_arctanh:0000000000000076 .L0 
C:\Users\elias\AppData\Local\Temp\ccM4DAnB.s:1283   .text.cordic_arctanh:000000000000007a .L0 
C:\Users\elias\AppData\Local\Temp\ccM4DAnB.s:1288   .text.cordic_arctanh:000000000000007c .L0 
C:\Users\elias\AppData\Local\Temp\ccM4DAnB.s:1291   .text.cordic_arctanh:000000000000007e .L0 
C:\Users\elias\AppData\Local\Temp\ccM4DAnB.s:1292   .text.cordic_arctanh:000000000000007e .L0 
C:\Users\elias\AppData\Local\Temp\ccM4DAnB.s:1295   .text.cordic_arctanh:0000000000000080 .L0 
C:\Users\elias\AppData\Local\Temp\ccM4DAnB.s:1296   .text.cordic_arctanh:0000000000000080 .L0 
C:\Users\elias\AppData\Local\Temp\ccM4DAnB.s:1300   .text.cordic_arctanh:0000000000000086 .L0 
C:\Users\elias\AppData\Local\Temp\ccM4DAnB.s:1307   .text.cordic_ln:0000000000000000 cordic_ln
C:\Users\elias\AppData\Local\Temp\ccM4DAnB.s:1310   .text.cordic_ln:0000000000000000 .L0 
C:\Users\elias\AppData\Local\Temp\ccM4DAnB.s:1312   .text.cordic_ln:0000000000000000 .L0 
C:\Users\elias\AppData\Local\Temp\ccM4DAnB.s:1313   .text.cordic_ln:0000000000000000 .L0 
C:\Users\elias\AppData\Local\Temp\ccM4DAnB.s:1314   .text.cordic_ln:0000000000000000 .L0 
C:\Users\elias\AppData\Local\Temp\ccM4DAnB.s:1315   .text.cordic_ln:0000000000000000 .L0 
C:\Users\elias\AppData\Local\Temp\ccM4DAnB.s:1316   .text.cordic_ln:0000000000000000 .L0 
C:\Users\elias\AppData\Local\Temp\ccM4DAnB.s:1318   .text.cordic_ln:0000000000000002 .L0 
C:\Users\elias\AppData\Local\Temp\ccM4DAnB.s:1321   .text.cordic_ln:0000000000000006 .L0 
C:\Users\elias\AppData\Local\Temp\ccM4DAnB.s:1322   .text.cordic_ln:0000000000000006 .L0 
C:\Users\elias\AppData\Local\Temp\ccM4DAnB.s:1324   .text.cordic_ln:0000000000000006 .L0 
C:\Users\elias\AppData\Local\Temp\ccM4DAnB.s:1326   .text.cordic_ln:000000000000000a .L0 
C:\Users\elias\AppData\Local\Temp\ccM4DAnB.s:1328   .text.cordic_ln:000000000000000c .L0 
C:\Users\elias\AppData\Local\Temp\ccM4DAnB.s:1331   .text.cordic_ln:0000000000000014 .L0 
C:\Users\elias\AppData\Local\Temp\ccM4DAnB.s:1333   .text.cordic_ln:0000000000000018 .L0 
C:\Users\elias\AppData\Local\Temp\ccM4DAnB.s:1337   .text.cordic_ln:000000000000001c .L0 
C:\Users\elias\AppData\Local\Temp\ccM4DAnB.s:1338   .text.cordic_ln:000000000000001c .L0 
C:\Users\elias\AppData\Local\Temp\ccM4DAnB.s:1339   .text.cordic_ln:000000000000001c .L0 
C:\Users\elias\AppData\Local\Temp\ccM4DAnB.s:1342   .text.cordic_ln:0000000000000020 .L0 
C:\Users\elias\AppData\Local\Temp\ccM4DAnB.s:1345   .text.cordic_ln:0000000000000024 .L0 
C:\Users\elias\AppData\Local\Temp\ccM4DAnB.s:1348   .text.cordic_ln:0000000000000028 .L0 
C:\Users\elias\AppData\Local\Temp\ccM4DAnB.s:1352   .text.cordic_ln:000000000000002c .L0 
C:\Users\elias\AppData\Local\Temp\ccM4DAnB.s:1353   .text.cordic_ln:000000000000002c .L0 
C:\Users\elias\AppData\Local\Temp\ccM4DAnB.s:1354   .text.cordic_ln:000000000000002c .L0 
C:\Users\elias\AppData\Local\Temp\ccM4DAnB.s:1355   .text.cordic_ln:000000000000002c .L0 
C:\Users\elias\AppData\Local\Temp\ccM4DAnB.s:1364   .text.cordic_ln:000000000000003c .L0 
C:\Users\elias\AppData\Local\Temp\ccM4DAnB.s:1365   .text.cordic_ln:000000000000003c .L0 
C:\Users\elias\AppData\Local\Temp\ccM4DAnB.s:1367   .text.cordic_ln:000000000000003e .L0 
C:\Users\elias\AppData\Local\Temp\ccM4DAnB.s:1369   .text.cordic_ln:0000000000000040 .L0 
C:\Users\elias\AppData\Local\Temp\ccM4DAnB.s:1373   .text.cordic_ln:0000000000000044 .L0 
C:\Users\elias\AppData\Local\Temp\ccM4DAnB.s:1374   .text.cordic_ln:0000000000000046 .L0 
C:\Users\elias\AppData\Local\Temp\ccM4DAnB.s:1378   .text.cordic_ln:0000000000000046 .L0 
C:\Users\elias\AppData\Local\Temp\ccM4DAnB.s:1382   .text.cordic_ln:000000000000004a .L0 
C:\Users\elias\AppData\Local\Temp\ccM4DAnB.s:1384   .text.cordic_ln:000000000000004e .L0 
GAS LISTING C:\Users\elias\AppData\Local\Temp\ccM4DAnB.s 			page 79


C:\Users\elias\AppData\Local\Temp\ccM4DAnB.s:1387   .text.cordic_ln:0000000000000050 .L0 
C:\Users\elias\AppData\Local\Temp\ccM4DAnB.s:1389   .text.cordic_ln:0000000000000052 .L0 
C:\Users\elias\AppData\Local\Temp\ccM4DAnB.s:1396   .text.cordic_arccosh:0000000000000000 cordic_arccosh
C:\Users\elias\AppData\Local\Temp\ccM4DAnB.s:1399   .text.cordic_arccosh:0000000000000000 .L0 
C:\Users\elias\AppData\Local\Temp\ccM4DAnB.s:1401   .text.cordic_arccosh:0000000000000000 .L0 
C:\Users\elias\AppData\Local\Temp\ccM4DAnB.s:1402   .text.cordic_arccosh:0000000000000000 .L0 
C:\Users\elias\AppData\Local\Temp\ccM4DAnB.s:1404   .text.cordic_arccosh:0000000000000000 .L0 
C:\Users\elias\AppData\Local\Temp\ccM4DAnB.s:1406   .text.cordic_arccosh:0000000000000000 .L0 
C:\Users\elias\AppData\Local\Temp\ccM4DAnB.s:1407   .text.cordic_arccosh:0000000000000000 .L0 
C:\Users\elias\AppData\Local\Temp\ccM4DAnB.s:1409   .text.cordic_arccosh:0000000000000002 .L0 
C:\Users\elias\AppData\Local\Temp\ccM4DAnB.s:1411   .text.cordic_arccosh:0000000000000004 .L0 
C:\Users\elias\AppData\Local\Temp\ccM4DAnB.s:1413   .text.cordic_arccosh:0000000000000004 .L0 
C:\Users\elias\AppData\Local\Temp\ccM4DAnB.s:1416   .text.cordic_arccosh:0000000000000006 .L0 
C:\Users\elias\AppData\Local\Temp\ccM4DAnB.s:1419   .text.cordic_arccosh:0000000000000008 .L0 
C:\Users\elias\AppData\Local\Temp\ccM4DAnB.s:1421   .text.cordic_arccosh:000000000000000c .L0 
C:\Users\elias\AppData\Local\Temp\ccM4DAnB.s:1424   .text.cordic_arccosh:000000000000000e .L0 
C:\Users\elias\AppData\Local\Temp\ccM4DAnB.s:1428   .text.cordic_arccosh:0000000000000010 .L0 
C:\Users\elias\AppData\Local\Temp\ccM4DAnB.s:1429   .text.cordic_arccosh:0000000000000010 .L0 
C:\Users\elias\AppData\Local\Temp\ccM4DAnB.s:1430   .text.cordic_arccosh:0000000000000010 .L0 
C:\Users\elias\AppData\Local\Temp\ccM4DAnB.s:1431   .text.cordic_arccosh:0000000000000010 .L0 
C:\Users\elias\AppData\Local\Temp\ccM4DAnB.s:1434   .text.cordic_arccosh:0000000000000018 .L0 
C:\Users\elias\AppData\Local\Temp\ccM4DAnB.s:1436   .text.cordic_arccosh:000000000000001c .L0 
C:\Users\elias\AppData\Local\Temp\ccM4DAnB.s:1439   .text.cordic_arccosh:0000000000000020 .L0 
C:\Users\elias\AppData\Local\Temp\ccM4DAnB.s:1442   .text.cordic_arccosh:0000000000000022 .L0 
C:\Users\elias\AppData\Local\Temp\ccM4DAnB.s:1443   .text.cordic_arccosh:0000000000000022 .L0 
C:\Users\elias\AppData\Local\Temp\ccM4DAnB.s:1444   .text.cordic_arccosh:0000000000000022 .L0 
C:\Users\elias\AppData\Local\Temp\ccM4DAnB.s:1445   .text.cordic_arccosh:0000000000000022 .L0 
C:\Users\elias\AppData\Local\Temp\ccM4DAnB.s:1448   .text.cordic_arccosh:0000000000000026 .L0 
C:\Users\elias\AppData\Local\Temp\ccM4DAnB.s:1451   .text.cordic_arccosh:0000000000000028 .L0 
C:\Users\elias\AppData\Local\Temp\ccM4DAnB.s:1454   .text.cordic_arccosh:000000000000002c .L0 
C:\Users\elias\AppData\Local\Temp\ccM4DAnB.s:1455   .text.cordic_arccosh:000000000000002c .L0 
C:\Users\elias\AppData\Local\Temp\ccM4DAnB.s:1458   .text.cordic_arccosh:0000000000000030 .L0 
C:\Users\elias\AppData\Local\Temp\ccM4DAnB.s:1461   .text.cordic_arccosh:0000000000000032 .L0 
C:\Users\elias\AppData\Local\Temp\ccM4DAnB.s:1463   .text.cordic_arccosh:0000000000000036 .L0 
C:\Users\elias\AppData\Local\Temp\ccM4DAnB.s:1470   .text.cordic_arccosh:0000000000000040 .L0 
C:\Users\elias\AppData\Local\Temp\ccM4DAnB.s:1471   .text.cordic_arccosh:0000000000000040 .L0 
C:\Users\elias\AppData\Local\Temp\ccM4DAnB.s:1477   .text.cordic_arccosh:000000000000004a .L0 
C:\Users\elias\AppData\Local\Temp\ccM4DAnB.s:1478   .text.cordic_arccosh:000000000000004c .L0 
C:\Users\elias\AppData\Local\Temp\ccM4DAnB.s:1479   .text.cordic_arccosh:000000000000004c .L0 
C:\Users\elias\AppData\Local\Temp\ccM4DAnB.s:1482   .text.cordic_arccosh:000000000000004e .L0 
C:\Users\elias\AppData\Local\Temp\ccM4DAnB.s:1488   .text.cordic_arccosh:0000000000000052 .L0 
C:\Users\elias\AppData\Local\Temp\ccM4DAnB.s:1491   .text.cordic_arccosh:0000000000000052 .L0 
C:\Users\elias\AppData\Local\Temp\ccM4DAnB.s:1494   .text.cordic_arccosh:0000000000000054 .L0 
C:\Users\elias\AppData\Local\Temp\ccM4DAnB.s:1495   .text.cordic_arccosh:0000000000000054 .L0 
C:\Users\elias\AppData\Local\Temp\ccM4DAnB.s:1498   .text.cordic_arccosh:0000000000000056 .L0 
C:\Users\elias\AppData\Local\Temp\ccM4DAnB.s:1499   .text.cordic_arccosh:0000000000000056 .L0 
C:\Users\elias\AppData\Local\Temp\ccM4DAnB.s:1500   .text.cordic_arccosh:0000000000000056 .L0 
C:\Users\elias\AppData\Local\Temp\ccM4DAnB.s:1503   .text.cordic_arccosh:000000000000005a .L0 
C:\Users\elias\AppData\Local\Temp\ccM4DAnB.s:1504   .text.cordic_arccosh:000000000000005a .L0 
C:\Users\elias\AppData\Local\Temp\ccM4DAnB.s:1505   .text.cordic_arccosh:000000000000005a .L0 
C:\Users\elias\AppData\Local\Temp\ccM4DAnB.s:1506   .text.cordic_arccosh:000000000000005a .L0 
C:\Users\elias\AppData\Local\Temp\ccM4DAnB.s:1512   .text.cordic_arccosh:0000000000000068 .L0 
C:\Users\elias\AppData\Local\Temp\ccM4DAnB.s:1515   .text.cordic_arccosh:000000000000006a .L0 
C:\Users\elias\AppData\Local\Temp\ccM4DAnB.s:1516   .text.cordic_arccosh:000000000000006a .L0 
C:\Users\elias\AppData\Local\Temp\ccM4DAnB.s:1517   .text.cordic_arccosh:000000000000006a .L0 
C:\Users\elias\AppData\Local\Temp\ccM4DAnB.s:1519   .text.cordic_arccosh:000000000000006e .L0 
C:\Users\elias\AppData\Local\Temp\ccM4DAnB.s:1522   .text.cordic_arccosh:0000000000000072 .L0 
GAS LISTING C:\Users\elias\AppData\Local\Temp\ccM4DAnB.s 			page 80


C:\Users\elias\AppData\Local\Temp\ccM4DAnB.s:1523   .text.cordic_arccosh:0000000000000072 .L0 
C:\Users\elias\AppData\Local\Temp\ccM4DAnB.s:1526   .text.cordic_arccosh:0000000000000074 .L0 
C:\Users\elias\AppData\Local\Temp\ccM4DAnB.s:1530   .text.cordic_arccosh:0000000000000076 .L0 
C:\Users\elias\AppData\Local\Temp\ccM4DAnB.s:1533   .text.cordic_arccosh:0000000000000078 .L0 
C:\Users\elias\AppData\Local\Temp\ccM4DAnB.s:1534   .text.cordic_arccosh:0000000000000078 .L0 
C:\Users\elias\AppData\Local\Temp\ccM4DAnB.s:1537   .text.cordic_arccosh:000000000000007a .L0 
C:\Users\elias\AppData\Local\Temp\ccM4DAnB.s:1539   .text.cordic_arccosh:000000000000007c .L0 
C:\Users\elias\AppData\Local\Temp\ccM4DAnB.s:1546   .text.cordic_arcsinh:0000000000000000 cordic_arcsinh
C:\Users\elias\AppData\Local\Temp\ccM4DAnB.s:1549   .text.cordic_arcsinh:0000000000000000 .L0 
C:\Users\elias\AppData\Local\Temp\ccM4DAnB.s:1551   .text.cordic_arcsinh:0000000000000000 .L0 
C:\Users\elias\AppData\Local\Temp\ccM4DAnB.s:1552   .text.cordic_arcsinh:0000000000000000 .L0 
C:\Users\elias\AppData\Local\Temp\ccM4DAnB.s:1554   .text.cordic_arcsinh:0000000000000000 .L0 
C:\Users\elias\AppData\Local\Temp\ccM4DAnB.s:1556   .text.cordic_arcsinh:0000000000000000 .L0 
C:\Users\elias\AppData\Local\Temp\ccM4DAnB.s:1557   .text.cordic_arcsinh:0000000000000000 .L0 
C:\Users\elias\AppData\Local\Temp\ccM4DAnB.s:1559   .text.cordic_arcsinh:0000000000000002 .L0 
C:\Users\elias\AppData\Local\Temp\ccM4DAnB.s:1561   .text.cordic_arcsinh:0000000000000004 .L0 
C:\Users\elias\AppData\Local\Temp\ccM4DAnB.s:1563   .text.cordic_arcsinh:0000000000000004 .L0 
C:\Users\elias\AppData\Local\Temp\ccM4DAnB.s:1566   .text.cordic_arcsinh:0000000000000006 .L0 
C:\Users\elias\AppData\Local\Temp\ccM4DAnB.s:1569   .text.cordic_arcsinh:0000000000000008 .L0 
C:\Users\elias\AppData\Local\Temp\ccM4DAnB.s:1572   .text.cordic_arcsinh:000000000000000c .L0 
C:\Users\elias\AppData\Local\Temp\ccM4DAnB.s:1577   .text.cordic_arcsinh:0000000000000010 .L0 
C:\Users\elias\AppData\Local\Temp\ccM4DAnB.s:1580   .text.cordic_arcsinh:0000000000000012 .L0 
C:\Users\elias\AppData\Local\Temp\ccM4DAnB.s:1583   .text.cordic_arcsinh:0000000000000014 .L0 
C:\Users\elias\AppData\Local\Temp\ccM4DAnB.s:1584   .text.cordic_arcsinh:0000000000000014 .L0 
C:\Users\elias\AppData\Local\Temp\ccM4DAnB.s:1587   .text.cordic_arcsinh:0000000000000016 .L0 
C:\Users\elias\AppData\Local\Temp\ccM4DAnB.s:1588   .text.cordic_arcsinh:0000000000000016 .L0 
C:\Users\elias\AppData\Local\Temp\ccM4DAnB.s:1592   .text.cordic_arcsinh:000000000000001a .L0 
C:\Users\elias\AppData\Local\Temp\ccM4DAnB.s:1593   .text.cordic_arcsinh:000000000000001a .L0 
C:\Users\elias\AppData\Local\Temp\ccM4DAnB.s:1594   .text.cordic_arcsinh:000000000000001a .L0 
C:\Users\elias\AppData\Local\Temp\ccM4DAnB.s:1595   .text.cordic_arcsinh:000000000000001a .L0 
C:\Users\elias\AppData\Local\Temp\ccM4DAnB.s:1598   .text.cordic_arcsinh:0000000000000022 .L0 
C:\Users\elias\AppData\Local\Temp\ccM4DAnB.s:1600   .text.cordic_arcsinh:0000000000000026 .L0 
C:\Users\elias\AppData\Local\Temp\ccM4DAnB.s:1603   .text.cordic_arcsinh:0000000000000028 .L0 
C:\Users\elias\AppData\Local\Temp\ccM4DAnB.s:1606   .text.cordic_arcsinh:000000000000002a .L0 
C:\Users\elias\AppData\Local\Temp\ccM4DAnB.s:1607   .text.cordic_arcsinh:000000000000002a .L0 
C:\Users\elias\AppData\Local\Temp\ccM4DAnB.s:1610   .text.cordic_arcsinh:000000000000002c .L0 
C:\Users\elias\AppData\Local\Temp\ccM4DAnB.s:1611   .text.cordic_arcsinh:000000000000002c .L0 
C:\Users\elias\AppData\Local\Temp\ccM4DAnB.s:1615   .text.cordic_arcsinh:0000000000000030 .L0 
C:\Users\elias\AppData\Local\Temp\ccM4DAnB.s:1616   .text.cordic_arcsinh:0000000000000030 .L0 
C:\Users\elias\AppData\Local\Temp\ccM4DAnB.s:1619   .text.cordic_arcsinh:0000000000000034 .L0 
C:\Users\elias\AppData\Local\Temp\ccM4DAnB.s:1622   .text.cordic_arcsinh:0000000000000036 .L0 
C:\Users\elias\AppData\Local\Temp\ccM4DAnB.s:1624   .text.cordic_arcsinh:000000000000003a .L0 
C:\Users\elias\AppData\Local\Temp\ccM4DAnB.s:1631   .text.cordic_arcsinh:0000000000000044 .L0 
C:\Users\elias\AppData\Local\Temp\ccM4DAnB.s:1632   .text.cordic_arcsinh:0000000000000044 .L0 
C:\Users\elias\AppData\Local\Temp\ccM4DAnB.s:1638   .text.cordic_arcsinh:000000000000004e .L0 
C:\Users\elias\AppData\Local\Temp\ccM4DAnB.s:1639   .text.cordic_arcsinh:0000000000000050 .L0 
C:\Users\elias\AppData\Local\Temp\ccM4DAnB.s:1642   .text.cordic_arcsinh:0000000000000052 .L0 
C:\Users\elias\AppData\Local\Temp\ccM4DAnB.s:1645   .text.cordic_arcsinh:0000000000000056 .L0 
C:\Users\elias\AppData\Local\Temp\ccM4DAnB.s:1652   .text.cordic_sinh:0000000000000000 cordic_sinh
C:\Users\elias\AppData\Local\Temp\ccM4DAnB.s:1655   .text.cordic_sinh:0000000000000000 .L0 
C:\Users\elias\AppData\Local\Temp\ccM4DAnB.s:1657   .text.cordic_sinh:0000000000000000 .L0 
C:\Users\elias\AppData\Local\Temp\ccM4DAnB.s:1658   .text.cordic_sinh:0000000000000000 .L0 
C:\Users\elias\AppData\Local\Temp\ccM4DAnB.s:1660   .text.cordic_sinh:0000000000000000 .L0 
C:\Users\elias\AppData\Local\Temp\ccM4DAnB.s:1661   .text.cordic_sinh:0000000000000000 .L0 
C:\Users\elias\AppData\Local\Temp\ccM4DAnB.s:1662   .text.cordic_sinh:0000000000000000 .L0 
C:\Users\elias\AppData\Local\Temp\ccM4DAnB.s:1666   .text.cordic_sinh:0000000000000006 .L0 
C:\Users\elias\AppData\Local\Temp\ccM4DAnB.s:1668   .text.cordic_sinh:0000000000000008 .L0 
GAS LISTING C:\Users\elias\AppData\Local\Temp\ccM4DAnB.s 			page 81


C:\Users\elias\AppData\Local\Temp\ccM4DAnB.s:1670   .text.cordic_sinh:000000000000000c .L0 
C:\Users\elias\AppData\Local\Temp\ccM4DAnB.s:1673   .text.cordic_sinh:0000000000000012 .L0 
C:\Users\elias\AppData\Local\Temp\ccM4DAnB.s:1675   .text.cordic_sinh:0000000000000016 .L0 
C:\Users\elias\AppData\Local\Temp\ccM4DAnB.s:1678   .text.cordic_sinh:0000000000000018 .L0 
C:\Users\elias\AppData\Local\Temp\ccM4DAnB.s:1681   .text.cordic_sinh:000000000000001a .L0 
C:\Users\elias\AppData\Local\Temp\ccM4DAnB.s:1682   .text.cordic_sinh:000000000000001a .L0 
C:\Users\elias\AppData\Local\Temp\ccM4DAnB.s:1683   .text.cordic_sinh:000000000000001a .L0 
C:\Users\elias\AppData\Local\Temp\ccM4DAnB.s:1684   .text.cordic_sinh:000000000000001a .L0 
C:\Users\elias\AppData\Local\Temp\ccM4DAnB.s:1687   .text.cordic_sinh:0000000000000022 .L0 
C:\Users\elias\AppData\Local\Temp\ccM4DAnB.s:1691   .text.cordic_sinh:0000000000000026 .L0 
C:\Users\elias\AppData\Local\Temp\ccM4DAnB.s:1694   .text.cordic_sinh:0000000000000028 .L0 
C:\Users\elias\AppData\Local\Temp\ccM4DAnB.s:1695   .text.cordic_sinh:0000000000000028 .L0 
C:\Users\elias\AppData\Local\Temp\ccM4DAnB.s:1698   .text.cordic_sinh:000000000000002a .L0 
C:\Users\elias\AppData\Local\Temp\ccM4DAnB.s:1699   .text.cordic_sinh:000000000000002a .L0 
C:\Users\elias\AppData\Local\Temp\ccM4DAnB.s:1702   .text.cordic_sinh:000000000000002e .L0 
C:\Users\elias\AppData\Local\Temp\ccM4DAnB.s:1703   .text.cordic_sinh:000000000000002e .L0 
C:\Users\elias\AppData\Local\Temp\ccM4DAnB.s:1706   .text.cordic_sinh:0000000000000032 .L0 
C:\Users\elias\AppData\Local\Temp\ccM4DAnB.s:1709   .text.cordic_sinh:0000000000000034 .L0 
C:\Users\elias\AppData\Local\Temp\ccM4DAnB.s:1716   .text.cordic_sinh:0000000000000042 .L0 
C:\Users\elias\AppData\Local\Temp\ccM4DAnB.s:1717   .text.cordic_sinh:0000000000000042 .L0 
C:\Users\elias\AppData\Local\Temp\ccM4DAnB.s:1718   .text.cordic_sinh:0000000000000042 .L0 
C:\Users\elias\AppData\Local\Temp\ccM4DAnB.s:1719   .text.cordic_sinh:0000000000000042 .L0 
C:\Users\elias\AppData\Local\Temp\ccM4DAnB.s:1721   .text.cordic_sinh:0000000000000046 .L0 
C:\Users\elias\AppData\Local\Temp\ccM4DAnB.s:1724   .text.cordic_sinh:000000000000004a .L0 
C:\Users\elias\AppData\Local\Temp\ccM4DAnB.s:1727   .text.cordic_sinh:000000000000004c .L0 
C:\Users\elias\AppData\Local\Temp\ccM4DAnB.s:1730   .text.cordic_sinh:0000000000000050 .L0 
C:\Users\elias\AppData\Local\Temp\ccM4DAnB.s:1731   .text.cordic_sinh:0000000000000050 .L0 
C:\Users\elias\AppData\Local\Temp\ccM4DAnB.s:1734   .text.cordic_sinh:0000000000000054 .L0 
C:\Users\elias\AppData\Local\Temp\ccM4DAnB.s:1735   .text.cordic_sinh:0000000000000054 .L0 
C:\Users\elias\AppData\Local\Temp\ccM4DAnB.s:1736   .text.cordic_sinh:0000000000000054 .L0 
C:\Users\elias\AppData\Local\Temp\ccM4DAnB.s:1739   .text.cordic_sinh:0000000000000058 .L0 
C:\Users\elias\AppData\Local\Temp\ccM4DAnB.s:1740   .text.cordic_sinh:0000000000000058 .L0 
C:\Users\elias\AppData\Local\Temp\ccM4DAnB.s:1741   .text.cordic_sinh:0000000000000058 .L0 
C:\Users\elias\AppData\Local\Temp\ccM4DAnB.s:1742   .text.cordic_sinh:0000000000000058 .L0 
C:\Users\elias\AppData\Local\Temp\ccM4DAnB.s:1748   .text.cordic_sinh:0000000000000066 .L0 
C:\Users\elias\AppData\Local\Temp\ccM4DAnB.s:1751   .text.cordic_sinh:0000000000000068 .L0 
C:\Users\elias\AppData\Local\Temp\ccM4DAnB.s:1752   .text.cordic_sinh:0000000000000068 .L0 
C:\Users\elias\AppData\Local\Temp\ccM4DAnB.s:1753   .text.cordic_sinh:0000000000000068 .L0 
C:\Users\elias\AppData\Local\Temp\ccM4DAnB.s:1755   .text.cordic_sinh:000000000000006c .L0 
C:\Users\elias\AppData\Local\Temp\ccM4DAnB.s:1758   .text.cordic_sinh:000000000000006e .L0 
C:\Users\elias\AppData\Local\Temp\ccM4DAnB.s:1761   .text.cordic_sinh:0000000000000070 .L0 
C:\Users\elias\AppData\Local\Temp\ccM4DAnB.s:1762   .text.cordic_sinh:0000000000000070 .L0 
C:\Users\elias\AppData\Local\Temp\ccM4DAnB.s:1765   .text.cordic_sinh:0000000000000072 .L0 
C:\Users\elias\AppData\Local\Temp\ccM4DAnB.s:1766   .text.cordic_sinh:0000000000000072 .L0 
C:\Users\elias\AppData\Local\Temp\ccM4DAnB.s:1769   .text.cordic_sinh:0000000000000076 .L0 
C:\Users\elias\AppData\Local\Temp\ccM4DAnB.s:1773   .text.cordic_sinh:000000000000007a .L0 
C:\Users\elias\AppData\Local\Temp\ccM4DAnB.s:1780   .text.cordic_sinh:000000000000007e .L0 
C:\Users\elias\AppData\Local\Temp\ccM4DAnB.s:1783   .text.cordic_sinh:0000000000000080 .L0 
C:\Users\elias\AppData\Local\Temp\ccM4DAnB.s:1786   .text.cordic_sinh:0000000000000084 .L0 
C:\Users\elias\AppData\Local\Temp\ccM4DAnB.s:1787   .text.cordic_sinh:0000000000000084 .L0 
C:\Users\elias\AppData\Local\Temp\ccM4DAnB.s:1790   .text.cordic_sinh:0000000000000088 .L0 
C:\Users\elias\AppData\Local\Temp\ccM4DAnB.s:1792   .text.cordic_sinh:000000000000008a .L0 
C:\Users\elias\AppData\Local\Temp\ccM4DAnB.s:1799   .text.cordic_cosh:0000000000000000 cordic_cosh
C:\Users\elias\AppData\Local\Temp\ccM4DAnB.s:1802   .text.cordic_cosh:0000000000000000 .L0 
C:\Users\elias\AppData\Local\Temp\ccM4DAnB.s:1804   .text.cordic_cosh:0000000000000000 .L0 
C:\Users\elias\AppData\Local\Temp\ccM4DAnB.s:1805   .text.cordic_cosh:0000000000000000 .L0 
C:\Users\elias\AppData\Local\Temp\ccM4DAnB.s:1807   .text.cordic_cosh:0000000000000000 .L0 
GAS LISTING C:\Users\elias\AppData\Local\Temp\ccM4DAnB.s 			page 82


C:\Users\elias\AppData\Local\Temp\ccM4DAnB.s:1808   .text.cordic_cosh:0000000000000000 .L0 
C:\Users\elias\AppData\Local\Temp\ccM4DAnB.s:1809   .text.cordic_cosh:0000000000000000 .L0 
C:\Users\elias\AppData\Local\Temp\ccM4DAnB.s:1813   .text.cordic_cosh:0000000000000006 .L0 
C:\Users\elias\AppData\Local\Temp\ccM4DAnB.s:1815   .text.cordic_cosh:0000000000000008 .L0 
C:\Users\elias\AppData\Local\Temp\ccM4DAnB.s:1817   .text.cordic_cosh:000000000000000c .L0 
C:\Users\elias\AppData\Local\Temp\ccM4DAnB.s:1820   .text.cordic_cosh:0000000000000012 .L0 
C:\Users\elias\AppData\Local\Temp\ccM4DAnB.s:1822   .text.cordic_cosh:0000000000000016 .L0 
C:\Users\elias\AppData\Local\Temp\ccM4DAnB.s:1825   .text.cordic_cosh:0000000000000018 .L0 
C:\Users\elias\AppData\Local\Temp\ccM4DAnB.s:1828   .text.cordic_cosh:000000000000001a .L0 
C:\Users\elias\AppData\Local\Temp\ccM4DAnB.s:1829   .text.cordic_cosh:000000000000001a .L0 
C:\Users\elias\AppData\Local\Temp\ccM4DAnB.s:1830   .text.cordic_cosh:000000000000001a .L0 
C:\Users\elias\AppData\Local\Temp\ccM4DAnB.s:1831   .text.cordic_cosh:000000000000001a .L0 
C:\Users\elias\AppData\Local\Temp\ccM4DAnB.s:1834   .text.cordic_cosh:0000000000000022 .L0 
C:\Users\elias\AppData\Local\Temp\ccM4DAnB.s:1838   .text.cordic_cosh:0000000000000026 .L0 
C:\Users\elias\AppData\Local\Temp\ccM4DAnB.s:1841   .text.cordic_cosh:0000000000000028 .L0 
C:\Users\elias\AppData\Local\Temp\ccM4DAnB.s:1842   .text.cordic_cosh:0000000000000028 .L0 
C:\Users\elias\AppData\Local\Temp\ccM4DAnB.s:1845   .text.cordic_cosh:000000000000002a .L0 
C:\Users\elias\AppData\Local\Temp\ccM4DAnB.s:1846   .text.cordic_cosh:000000000000002a .L0 
C:\Users\elias\AppData\Local\Temp\ccM4DAnB.s:1849   .text.cordic_cosh:000000000000002e .L0 
C:\Users\elias\AppData\Local\Temp\ccM4DAnB.s:1850   .text.cordic_cosh:000000000000002e .L0 
C:\Users\elias\AppData\Local\Temp\ccM4DAnB.s:1853   .text.cordic_cosh:0000000000000032 .L0 
C:\Users\elias\AppData\Local\Temp\ccM4DAnB.s:1856   .text.cordic_cosh:0000000000000034 .L0 
C:\Users\elias\AppData\Local\Temp\ccM4DAnB.s:1863   .text.cordic_cosh:0000000000000042 .L0 
C:\Users\elias\AppData\Local\Temp\ccM4DAnB.s:1864   .text.cordic_cosh:0000000000000042 .L0 
C:\Users\elias\AppData\Local\Temp\ccM4DAnB.s:1865   .text.cordic_cosh:0000000000000042 .L0 
C:\Users\elias\AppData\Local\Temp\ccM4DAnB.s:1866   .text.cordic_cosh:0000000000000042 .L0 
C:\Users\elias\AppData\Local\Temp\ccM4DAnB.s:1868   .text.cordic_cosh:0000000000000046 .L0 
C:\Users\elias\AppData\Local\Temp\ccM4DAnB.s:1871   .text.cordic_cosh:000000000000004a .L0 
C:\Users\elias\AppData\Local\Temp\ccM4DAnB.s:1874   .text.cordic_cosh:000000000000004c .L0 
C:\Users\elias\AppData\Local\Temp\ccM4DAnB.s:1877   .text.cordic_cosh:0000000000000050 .L0 
C:\Users\elias\AppData\Local\Temp\ccM4DAnB.s:1878   .text.cordic_cosh:0000000000000050 .L0 
C:\Users\elias\AppData\Local\Temp\ccM4DAnB.s:1881   .text.cordic_cosh:0000000000000054 .L0 
C:\Users\elias\AppData\Local\Temp\ccM4DAnB.s:1882   .text.cordic_cosh:0000000000000054 .L0 
C:\Users\elias\AppData\Local\Temp\ccM4DAnB.s:1883   .text.cordic_cosh:0000000000000054 .L0 
C:\Users\elias\AppData\Local\Temp\ccM4DAnB.s:1886   .text.cordic_cosh:0000000000000058 .L0 
C:\Users\elias\AppData\Local\Temp\ccM4DAnB.s:1887   .text.cordic_cosh:0000000000000058 .L0 
C:\Users\elias\AppData\Local\Temp\ccM4DAnB.s:1888   .text.cordic_cosh:0000000000000058 .L0 
C:\Users\elias\AppData\Local\Temp\ccM4DAnB.s:1889   .text.cordic_cosh:0000000000000058 .L0 
C:\Users\elias\AppData\Local\Temp\ccM4DAnB.s:1895   .text.cordic_cosh:0000000000000066 .L0 
C:\Users\elias\AppData\Local\Temp\ccM4DAnB.s:1898   .text.cordic_cosh:0000000000000068 .L0 
C:\Users\elias\AppData\Local\Temp\ccM4DAnB.s:1899   .text.cordic_cosh:0000000000000068 .L0 
C:\Users\elias\AppData\Local\Temp\ccM4DAnB.s:1900   .text.cordic_cosh:0000000000000068 .L0 
C:\Users\elias\AppData\Local\Temp\ccM4DAnB.s:1902   .text.cordic_cosh:000000000000006c .L0 
C:\Users\elias\AppData\Local\Temp\ccM4DAnB.s:1905   .text.cordic_cosh:000000000000006e .L0 
C:\Users\elias\AppData\Local\Temp\ccM4DAnB.s:1908   .text.cordic_cosh:0000000000000070 .L0 
C:\Users\elias\AppData\Local\Temp\ccM4DAnB.s:1909   .text.cordic_cosh:0000000000000070 .L0 
C:\Users\elias\AppData\Local\Temp\ccM4DAnB.s:1912   .text.cordic_cosh:0000000000000072 .L0 
C:\Users\elias\AppData\Local\Temp\ccM4DAnB.s:1913   .text.cordic_cosh:0000000000000072 .L0 
C:\Users\elias\AppData\Local\Temp\ccM4DAnB.s:1916   .text.cordic_cosh:0000000000000076 .L0 
C:\Users\elias\AppData\Local\Temp\ccM4DAnB.s:1920   .text.cordic_cosh:000000000000007a .L0 
C:\Users\elias\AppData\Local\Temp\ccM4DAnB.s:1927   .text.cordic_cosh:000000000000007e .L0 
C:\Users\elias\AppData\Local\Temp\ccM4DAnB.s:1930   .text.cordic_cosh:0000000000000080 .L0 
C:\Users\elias\AppData\Local\Temp\ccM4DAnB.s:1933   .text.cordic_cosh:0000000000000084 .L0 
C:\Users\elias\AppData\Local\Temp\ccM4DAnB.s:1934   .text.cordic_cosh:0000000000000084 .L0 
C:\Users\elias\AppData\Local\Temp\ccM4DAnB.s:1937   .text.cordic_cosh:0000000000000088 .L0 
C:\Users\elias\AppData\Local\Temp\ccM4DAnB.s:1939   .text.cordic_cosh:000000000000008a .L0 
C:\Users\elias\AppData\Local\Temp\ccM4DAnB.s:1946   .text.cordic_tanh:0000000000000000 cordic_tanh
GAS LISTING C:\Users\elias\AppData\Local\Temp\ccM4DAnB.s 			page 83


C:\Users\elias\AppData\Local\Temp\ccM4DAnB.s:1949   .text.cordic_tanh:0000000000000000 .L0 
C:\Users\elias\AppData\Local\Temp\ccM4DAnB.s:1951   .text.cordic_tanh:0000000000000000 .L0 
C:\Users\elias\AppData\Local\Temp\ccM4DAnB.s:1952   .text.cordic_tanh:0000000000000000 .L0 
C:\Users\elias\AppData\Local\Temp\ccM4DAnB.s:1953   .text.cordic_tanh:0000000000000000 .L0 
C:\Users\elias\AppData\Local\Temp\ccM4DAnB.s:1955   .text.cordic_tanh:0000000000000002 .L0 
C:\Users\elias\AppData\Local\Temp\ccM4DAnB.s:1959   .text.cordic_tanh:0000000000000008 .L0 
C:\Users\elias\AppData\Local\Temp\ccM4DAnB.s:1960   .text.cordic_tanh:0000000000000008 .L0 
C:\Users\elias\AppData\Local\Temp\ccM4DAnB.s:1961   .text.cordic_tanh:0000000000000008 .L0 
C:\Users\elias\AppData\Local\Temp\ccM4DAnB.s:1963   .text.cordic_tanh:0000000000000008 .L0 
C:\Users\elias\AppData\Local\Temp\ccM4DAnB.s:1965   .text.cordic_tanh:000000000000000a .L0 
C:\Users\elias\AppData\Local\Temp\ccM4DAnB.s:1969   .text.cordic_tanh:0000000000000014 .L0 
C:\Users\elias\AppData\Local\Temp\ccM4DAnB.s:1973   .text.cordic_tanh:000000000000001e .L0 
C:\Users\elias\AppData\Local\Temp\ccM4DAnB.s:1975   .text.cordic_tanh:0000000000000020 .L0 
C:\Users\elias\AppData\Local\Temp\ccM4DAnB.s:1977   .text.cordic_tanh:0000000000000026 .L0 
C:\Users\elias\AppData\Local\Temp\ccM4DAnB.s:1979   .text.cordic_tanh:0000000000000028 .L0 
C:\Users\elias\AppData\Local\Temp\ccM4DAnB.s:1981   .text.cordic_tanh:000000000000002a .L0 
C:\Users\elias\AppData\Local\Temp\ccM4DAnB.s:1985   .text.cordic_tanh:000000000000002c .L0 
C:\Users\elias\AppData\Local\Temp\ccM4DAnB.s:1987   .text.cordic_tanh:000000000000002e .L0 
C:\Users\elias\AppData\Local\Temp\ccM4DAnB.s:1994   .text.cordic_exp:0000000000000000 cordic_exp
C:\Users\elias\AppData\Local\Temp\ccM4DAnB.s:1997   .text.cordic_exp:0000000000000000 .L0 
C:\Users\elias\AppData\Local\Temp\ccM4DAnB.s:1999   .text.cordic_exp:0000000000000000 .L0 
C:\Users\elias\AppData\Local\Temp\ccM4DAnB.s:2002   .text.cordic_exp:0000000000000000 .L0 
C:\Users\elias\AppData\Local\Temp\ccM4DAnB.s:2003   .text.cordic_exp:0000000000000000 .L0 
C:\Users\elias\AppData\Local\Temp\ccM4DAnB.s:2004   .text.cordic_exp:0000000000000000 .L0 
C:\Users\elias\AppData\Local\Temp\ccM4DAnB.s:2011   .text.cordic_exp:000000000000000a .L0 
C:\Users\elias\AppData\Local\Temp\ccM4DAnB.s:2015   .text.cordic_exp:000000000000000c .L0 
C:\Users\elias\AppData\Local\Temp\ccM4DAnB.s:2021   .text.cordic_exp:0000000000000010 .L0 
C:\Users\elias\AppData\Local\Temp\ccM4DAnB.s:2022   .text.cordic_exp:0000000000000010 .L0 
C:\Users\elias\AppData\Local\Temp\ccM4DAnB.s:2024   .text.cordic_exp:0000000000000014 .L0 
C:\Users\elias\AppData\Local\Temp\ccM4DAnB.s:2029   .text.cordic_exp:000000000000001a .L0 
C:\Users\elias\AppData\Local\Temp\ccM4DAnB.s:2030   .text.cordic_exp:000000000000001a .L0 
C:\Users\elias\AppData\Local\Temp\ccM4DAnB.s:2034   .text.cordic_exp:000000000000001e .L0 
C:\Users\elias\AppData\Local\Temp\ccM4DAnB.s:2035   .text.cordic_exp:000000000000001e .L0 
C:\Users\elias\AppData\Local\Temp\ccM4DAnB.s:2038   .text.cordic_exp:0000000000000020 .L0 
C:\Users\elias\AppData\Local\Temp\ccM4DAnB.s:2043   .text.cordic_exp:0000000000000028 .L0 
C:\Users\elias\AppData\Local\Temp\ccM4DAnB.s:2047   .text.cordic_exp:000000000000002a .L0 
C:\Users\elias\AppData\Local\Temp\ccM4DAnB.s:2050   .text.cordic_exp:000000000000002c .L0 
C:\Users\elias\AppData\Local\Temp\ccM4DAnB.s:2053   .text.cordic_exp:0000000000000034 .L0 
C:\Users\elias\AppData\Local\Temp\ccM4DAnB.s:2055   .text.cordic_exp:0000000000000038 .L0 
C:\Users\elias\AppData\Local\Temp\ccM4DAnB.s:2058   .text.cordic_exp:000000000000003a .L0 
C:\Users\elias\AppData\Local\Temp\ccM4DAnB.s:2061   .text.cordic_exp:000000000000003c .L0 
C:\Users\elias\AppData\Local\Temp\ccM4DAnB.s:2062   .text.cordic_exp:000000000000003c .L0 
C:\Users\elias\AppData\Local\Temp\ccM4DAnB.s:2063   .text.cordic_exp:000000000000003c .L0 
C:\Users\elias\AppData\Local\Temp\ccM4DAnB.s:2064   .text.cordic_exp:000000000000003c .L0 
C:\Users\elias\AppData\Local\Temp\ccM4DAnB.s:2066   .text.cordic_exp:0000000000000040 .L0 
C:\Users\elias\AppData\Local\Temp\ccM4DAnB.s:2070   .text.cordic_exp:0000000000000044 .L0 
C:\Users\elias\AppData\Local\Temp\ccM4DAnB.s:2073   .text.cordic_exp:0000000000000046 .L0 
C:\Users\elias\AppData\Local\Temp\ccM4DAnB.s:2074   .text.cordic_exp:0000000000000046 .L0 
C:\Users\elias\AppData\Local\Temp\ccM4DAnB.s:2075   .text.cordic_exp:0000000000000046 .L0 
C:\Users\elias\AppData\Local\Temp\ccM4DAnB.s:2078   .text.cordic_exp:0000000000000048 .L0 
C:\Users\elias\AppData\Local\Temp\ccM4DAnB.s:2079   .text.cordic_exp:0000000000000048 .L0 
C:\Users\elias\AppData\Local\Temp\ccM4DAnB.s:2083   .text.cordic_exp:000000000000004c .L0 
C:\Users\elias\AppData\Local\Temp\ccM4DAnB.s:2086   .text.cordic_exp:000000000000004e .L0 
C:\Users\elias\AppData\Local\Temp\ccM4DAnB.s:2093   .text.cordic_exp:000000000000005a .L0 
C:\Users\elias\AppData\Local\Temp\ccM4DAnB.s:2094   .text.cordic_exp:000000000000005a .L0 
C:\Users\elias\AppData\Local\Temp\ccM4DAnB.s:2095   .text.cordic_exp:000000000000005a .L0 
C:\Users\elias\AppData\Local\Temp\ccM4DAnB.s:2096   .text.cordic_exp:000000000000005a .L0 
GAS LISTING C:\Users\elias\AppData\Local\Temp\ccM4DAnB.s 			page 84


C:\Users\elias\AppData\Local\Temp\ccM4DAnB.s:2097   .text.cordic_exp:000000000000005a .L0 
C:\Users\elias\AppData\Local\Temp\ccM4DAnB.s:2100   .text.cordic_exp:000000000000005e .L0 
C:\Users\elias\AppData\Local\Temp\ccM4DAnB.s:2102   .text.cordic_exp:0000000000000060 .L0 
C:\Users\elias\AppData\Local\Temp\ccM4DAnB.s:2105   .text.cordic_exp:0000000000000064 .L0 
C:\Users\elias\AppData\Local\Temp\ccM4DAnB.s:2106   .text.cordic_exp:0000000000000064 .L0 
C:\Users\elias\AppData\Local\Temp\ccM4DAnB.s:2107   .text.cordic_exp:0000000000000064 .L0 
C:\Users\elias\AppData\Local\Temp\ccM4DAnB.s:2108   .text.cordic_exp:0000000000000064 .L0 
C:\Users\elias\AppData\Local\Temp\ccM4DAnB.s:2111   .text.cordic_exp:0000000000000068 .L0 
C:\Users\elias\AppData\Local\Temp\ccM4DAnB.s:2112   .text.cordic_exp:0000000000000068 .L0 
C:\Users\elias\AppData\Local\Temp\ccM4DAnB.s:2113   .text.cordic_exp:0000000000000068 .L0 
C:\Users\elias\AppData\Local\Temp\ccM4DAnB.s:2114   .text.cordic_exp:0000000000000068 .L0 
C:\Users\elias\AppData\Local\Temp\ccM4DAnB.s:2118   .text.cordic_exp:000000000000006e .L0 
C:\Users\elias\AppData\Local\Temp\ccM4DAnB.s:2121   .text.cordic_exp:0000000000000070 .L0 
C:\Users\elias\AppData\Local\Temp\ccM4DAnB.s:2122   .text.cordic_exp:0000000000000070 .L0 
C:\Users\elias\AppData\Local\Temp\ccM4DAnB.s:2124   .text.cordic_exp:0000000000000074 .L0 
C:\Users\elias\AppData\Local\Temp\ccM4DAnB.s:2126   .text.cordic_exp:0000000000000078 .L0 
C:\Users\elias\AppData\Local\Temp\ccM4DAnB.s:2129   .text.cordic_exp:000000000000007a .L0 
C:\Users\elias\AppData\Local\Temp\ccM4DAnB.s:2132   .text.cordic_exp:000000000000007c .L0 
C:\Users\elias\AppData\Local\Temp\ccM4DAnB.s:2133   .text.cordic_exp:000000000000007c .L0 
C:\Users\elias\AppData\Local\Temp\ccM4DAnB.s:2134   .text.cordic_exp:000000000000007c .L0 
C:\Users\elias\AppData\Local\Temp\ccM4DAnB.s:2137   .text.cordic_exp:000000000000007e .L0 
C:\Users\elias\AppData\Local\Temp\ccM4DAnB.s:2143   .text.cordic_exp:0000000000000082 .L0 
C:\Users\elias\AppData\Local\Temp\ccM4DAnB.s:2145   .text.cordic_exp:0000000000000086 .L0 
C:\Users\elias\AppData\Local\Temp\ccM4DAnB.s:2149   .text.cordic_exp:0000000000000088 .L0 
C:\Users\elias\AppData\Local\Temp\ccM4DAnB.s:2152   .text.cordic_exp:000000000000008c .L0 
C:\Users\elias\AppData\Local\Temp\ccM4DAnB.s:2156   .text.cordic_exp:0000000000000090 .L0 
C:\Users\elias\AppData\Local\Temp\ccM4DAnB.s:2157   .text.cordic_exp:0000000000000090 .L0 
C:\Users\elias\AppData\Local\Temp\ccM4DAnB.s:2160   .text.cordic_exp:0000000000000094 .L0 
C:\Users\elias\AppData\Local\Temp\ccM4DAnB.s:2163   .text.cordic_exp:0000000000000096 .L0 
C:\Users\elias\AppData\Local\Temp\ccM4DAnB.s:2166   .text.cordic_exp:0000000000000098 .L0 
C:\Users\elias\AppData\Local\Temp\ccM4DAnB.s:2169   .text.cordic_exp:000000000000009c .L0 
C:\Users\elias\AppData\Local\Temp\ccM4DAnB.s:2170   .text.cordic_exp:000000000000009c .L0 
C:\Users\elias\AppData\Local\Temp\ccM4DAnB.s:2173   .text.cordic_exp:00000000000000a0 .L0 
C:\Users\elias\AppData\Local\Temp\ccM4DAnB.s:2179   .text.cordic_exp:00000000000000a4 .L0 
C:\Users\elias\AppData\Local\Temp\ccM4DAnB.s:2181   .text.cordic_exp:00000000000000a6 .L0 
C:\Users\elias\AppData\Local\Temp\ccM4DAnB.s:2184   .text.cordic_exp:00000000000000aa .L0 
C:\Users\elias\AppData\Local\Temp\ccM4DAnB.s:2185   .text.cordic_exp:00000000000000aa .L0 
C:\Users\elias\AppData\Local\Temp\ccM4DAnB.s:2190   .text.cordic_exp:00000000000000ac .L0 
C:\Users\elias\AppData\Local\Temp\ccM4DAnB.s:2192   .text.cordic_exp:00000000000000b0 .L0 
C:\Users\elias\AppData\Local\Temp\ccM4DAnB.s:2193   .text.cordic_exp:00000000000000b0 .L0 
C:\Users\elias\AppData\Local\Temp\ccM4DAnB.s:2195   .text.cordic_exp:00000000000000b4 .L0 
C:\Users\elias\AppData\Local\Temp\ccM4DAnB.s:2197   .text.cordic_exp:00000000000000b8 .L0 
C:\Users\elias\AppData\Local\Temp\ccM4DAnB.s:2204   .text.cordic_pow:0000000000000000 cordic_pow
C:\Users\elias\AppData\Local\Temp\ccM4DAnB.s:2207   .text.cordic_pow:0000000000000000 .L0 
C:\Users\elias\AppData\Local\Temp\ccM4DAnB.s:2209   .text.cordic_pow:0000000000000000 .L0 
C:\Users\elias\AppData\Local\Temp\ccM4DAnB.s:2210   .text.cordic_pow:0000000000000000 .L0 
C:\Users\elias\AppData\Local\Temp\ccM4DAnB.s:2211   .text.cordic_pow:0000000000000000 .L0 
C:\Users\elias\AppData\Local\Temp\ccM4DAnB.s:2213   .text.cordic_pow:0000000000000002 .L0 
C:\Users\elias\AppData\Local\Temp\ccM4DAnB.s:2216   .text.cordic_pow:0000000000000006 .L0 
C:\Users\elias\AppData\Local\Temp\ccM4DAnB.s:2217   .text.cordic_pow:0000000000000006 .L0 
C:\Users\elias\AppData\Local\Temp\ccM4DAnB.s:2219   .text.cordic_pow:0000000000000006 .L0 
C:\Users\elias\AppData\Local\Temp\ccM4DAnB.s:2221   .text.cordic_pow:0000000000000008 .L0 
C:\Users\elias\AppData\Local\Temp\ccM4DAnB.s:2224   .text.cordic_pow:0000000000000010 .L0 
C:\Users\elias\AppData\Local\Temp\ccM4DAnB.s:2226   .text.cordic_pow:0000000000000014 .L0 
C:\Users\elias\AppData\Local\Temp\ccM4DAnB.s:2227   .text.cordic_pow:0000000000000016 .L0 
C:\Users\elias\AppData\Local\Temp\ccM4DAnB.s:2230   .text.cordic_pow:0000000000000018 .L0 
C:\Users\elias\AppData\Local\Temp\ccM4DAnB.s:2233   .text.cordic_pow:000000000000001a .L0 
GAS LISTING C:\Users\elias\AppData\Local\Temp\ccM4DAnB.s 			page 85


C:\Users\elias\AppData\Local\Temp\ccM4DAnB.s:2235   .text.cordic_pow:000000000000001a .L0 
C:\Users\elias\AppData\Local\Temp\ccM4DAnB.s:2238   .text.cordic_pow:0000000000000024 .L0 
C:\Users\elias\AppData\Local\Temp\ccM4DAnB.s:2245   .text.cordic_abs:0000000000000000 cordic_abs
C:\Users\elias\AppData\Local\Temp\ccM4DAnB.s:2248   .text.cordic_abs:0000000000000000 .L0 
C:\Users\elias\AppData\Local\Temp\ccM4DAnB.s:2250   .text.cordic_abs:0000000000000000 .L0 
C:\Users\elias\AppData\Local\Temp\ccM4DAnB.s:2251   .text.cordic_abs:0000000000000000 .L0 
C:\Users\elias\AppData\Local\Temp\ccM4DAnB.s:2255   .text.cordic_abs:0000000000000006 .L0 
C:\Users\elias\AppData\Local\Temp\ccM4DAnB.s:2257   .text.cordic_abs:000000000000000a .L0 
C:\Users\elias\AppData\Local\Temp\ccM4DAnB.s:2264   .text.isEven:0000000000000000 isEven
C:\Users\elias\AppData\Local\Temp\ccM4DAnB.s:2267   .text.isEven:0000000000000000 .L0 
C:\Users\elias\AppData\Local\Temp\ccM4DAnB.s:2269   .text.isEven:0000000000000000 .L0 
C:\Users\elias\AppData\Local\Temp\ccM4DAnB.s:2270   .text.isEven:0000000000000000 .L0 
C:\Users\elias\AppData\Local\Temp\ccM4DAnB.s:2271   .text.isEven:0000000000000000 .L0 
C:\Users\elias\AppData\Local\Temp\ccM4DAnB.s:2274   .text.isEven:0000000000000004 .L0 
C:\Users\elias\AppData\Local\Temp\ccM4DAnB.s:2277   .text.isEven:0000000000000008 .L0 
C:\Users\elias\AppData\Local\Temp\ccM4DAnB.s:2284   .text.isOdd:0000000000000000 isOdd
C:\Users\elias\AppData\Local\Temp\ccM4DAnB.s:2287   .text.isOdd:0000000000000000 .L0 
C:\Users\elias\AppData\Local\Temp\ccM4DAnB.s:2289   .text.isOdd:0000000000000000 .L0 
C:\Users\elias\AppData\Local\Temp\ccM4DAnB.s:2290   .text.isOdd:0000000000000000 .L0 
C:\Users\elias\AppData\Local\Temp\ccM4DAnB.s:2291   .text.isOdd:0000000000000000 .L0 
C:\Users\elias\AppData\Local\Temp\ccM4DAnB.s:2294   .text.isOdd:0000000000000004 .L0 
C:\Users\elias\AppData\Local\Temp\ccM4DAnB.s:2301   .text.to_degree:0000000000000000 to_degree
C:\Users\elias\AppData\Local\Temp\ccM4DAnB.s:2304   .text.to_degree:0000000000000000 .L0 
C:\Users\elias\AppData\Local\Temp\ccM4DAnB.s:2306   .text.to_degree:0000000000000000 .L0 
C:\Users\elias\AppData\Local\Temp\ccM4DAnB.s:2307   .text.to_degree:0000000000000000 .L0 
C:\Users\elias\AppData\Local\Temp\ccM4DAnB.s:2308   .text.to_degree:0000000000000000 .L0 
C:\Users\elias\AppData\Local\Temp\ccM4DAnB.s:2313   .text.to_degree:000000000000000a .L0 
C:\Users\elias\AppData\Local\Temp\ccM4DAnB.s:2315   .text.to_degree:000000000000000e .L0 
C:\Users\elias\AppData\Local\Temp\ccM4DAnB.s:2322   .text.to_radians:0000000000000000 to_radians
C:\Users\elias\AppData\Local\Temp\ccM4DAnB.s:2325   .text.to_radians:0000000000000000 .L0 
C:\Users\elias\AppData\Local\Temp\ccM4DAnB.s:2327   .text.to_radians:0000000000000000 .L0 
C:\Users\elias\AppData\Local\Temp\ccM4DAnB.s:2328   .text.to_radians:0000000000000000 .L0 
C:\Users\elias\AppData\Local\Temp\ccM4DAnB.s:2329   .text.to_radians:0000000000000000 .L0 
C:\Users\elias\AppData\Local\Temp\ccM4DAnB.s:2332   .text.to_radians:0000000000000006 .L0 
C:\Users\elias\AppData\Local\Temp\ccM4DAnB.s:2335   .text.to_radians:0000000000000008 .L0 
C:\Users\elias\AppData\Local\Temp\ccM4DAnB.s:2337   .text.to_radians:000000000000000e .L0 
C:\Users\elias\AppData\Local\Temp\ccM4DAnB.s:2342   .rodata.LUT_CORDIC_ATAN:0000000000000000 .LANCHOR0
C:\Users\elias\AppData\Local\Temp\ccM4DAnB.s:2345   .rodata.LUT_CORDIC_ATAN:0000000000000000 LUT_CORDIC_ATAN
C:\Users\elias\AppData\Local\Temp\ccM4DAnB.s:2363   .rodata.LUT_CORDIC_ATANH:0000000000000000 .LANCHOR1
C:\Users\elias\AppData\Local\Temp\ccM4DAnB.s:2366   .rodata.LUT_CORDIC_ATANH:0000000000000000 LUT_CORDIC_ATANH
C:\Users\elias\AppData\Local\Temp\ccM4DAnB.s:99     .text.cordic_atan:0000000000000052 .L0 
C:\Users\elias\AppData\Local\Temp\ccM4DAnB.s:180    .text.cordic_hypotenuse:0000000000000046 .L0 
C:\Users\elias\AppData\Local\Temp\ccM4DAnB.s:303    .text.cordic_cos:0000000000000088 .L0 
C:\Users\elias\AppData\Local\Temp\ccM4DAnB.s:426    .text.cordic_sin:0000000000000088 .L0 
C:\Users\elias\AppData\Local\Temp\ccM4DAnB.s:543    .text.cordic_asin:0000000000000076 .L0 
C:\Users\elias\AppData\Local\Temp\ccM4DAnB.s:646    .text.cordic_acos:0000000000000060 .L0 
C:\Users\elias\AppData\Local\Temp\ccM4DAnB.s:778    .text.cordic_tan:0000000000000096 .L0 
C:\Users\elias\AppData\Local\Temp\ccM4DAnB.s:917    .text.cordic_rectangular_polar:000000000000007e .L0 
C:\Users\elias\AppData\Local\Temp\ccM4DAnB.s:1048   .text.cordic_polar_rectangular:0000000000000094 .L0 
C:\Users\elias\AppData\Local\Temp\ccM4DAnB.s:1157   .text.cordic_sqrt:000000000000006c .L0 
C:\Users\elias\AppData\Local\Temp\ccM4DAnB.s:1303   .text.cordic_arctanh:0000000000000086 .L0 
C:\Users\elias\AppData\Local\Temp\ccM4DAnB.s:1392   .text.cordic_ln:0000000000000052 .L0 
C:\Users\elias\AppData\Local\Temp\ccM4DAnB.s:1542   .text.cordic_arccosh:000000000000007c .L0 
C:\Users\elias\AppData\Local\Temp\ccM4DAnB.s:1648   .text.cordic_arcsinh:0000000000000056 .L0 
C:\Users\elias\AppData\Local\Temp\ccM4DAnB.s:1795   .text.cordic_sinh:000000000000008a .L0 
C:\Users\elias\AppData\Local\Temp\ccM4DAnB.s:1942   .text.cordic_cosh:000000000000008a .L0 
C:\Users\elias\AppData\Local\Temp\ccM4DAnB.s:1990   .text.cordic_tanh:000000000000002e .L0 
GAS LISTING C:\Users\elias\AppData\Local\Temp\ccM4DAnB.s 			page 86


C:\Users\elias\AppData\Local\Temp\ccM4DAnB.s:2200   .text.cordic_exp:00000000000000b8 .L0 
C:\Users\elias\AppData\Local\Temp\ccM4DAnB.s:2241   .text.cordic_pow:0000000000000024 .L0 
C:\Users\elias\AppData\Local\Temp\ccM4DAnB.s:2260   .text.cordic_abs:000000000000000a .L0 
C:\Users\elias\AppData\Local\Temp\ccM4DAnB.s:2280   .text.isEven:0000000000000008 .L0 
C:\Users\elias\AppData\Local\Temp\ccM4DAnB.s:2297   .text.isOdd:0000000000000004 .L0 
C:\Users\elias\AppData\Local\Temp\ccM4DAnB.s:2318   .text.to_degree:000000000000000e .L0 
C:\Users\elias\AppData\Local\Temp\ccM4DAnB.s:2340   .text.to_radians:000000000000000e .L0 
                     .debug_frame:0000000000000000 .L0 
C:\Users\elias\AppData\Local\Temp\ccM4DAnB.s:33     .text.cordic_atan:000000000000000e .L2
C:\Users\elias\AppData\Local\Temp\ccM4DAnB.s:67     .text.cordic_atan:0000000000000036 .L6
C:\Users\elias\AppData\Local\Temp\ccM4DAnB.s:92     .text.cordic_atan:0000000000000050 .L1
C:\Users\elias\AppData\Local\Temp\ccM4DAnB.s:46     .text.cordic_atan:0000000000000024 .L8
C:\Users\elias\AppData\Local\Temp\ccM4DAnB.s:63     .text.cordic_atan:0000000000000032 .L9
C:\Users\elias\AppData\Local\Temp\ccM4DAnB.s:143    .text.cordic_hypotenuse:0000000000000020 .L13
C:\Users\elias\AppData\Local\Temp\ccM4DAnB.s:164    .text.cordic_hypotenuse:0000000000000036 .L15
C:\Users\elias\AppData\Local\Temp\ccM4DAnB.s:129    .text.cordic_hypotenuse:0000000000000016 .L16
C:\Users\elias\AppData\Local\Temp\ccM4DAnB.s:214    .text.cordic_cos:0000000000000022 .L18
C:\Users\elias\AppData\Local\Temp\ccM4DAnB.s:295    .text.cordic_cos:0000000000000080 .L25
C:\Users\elias\AppData\Local\Temp\ccM4DAnB.s:249    .text.cordic_cos:000000000000004e .L22
C:\Users\elias\AppData\Local\Temp\ccM4DAnB.s:273    .text.cordic_cos:0000000000000068 .L21
C:\Users\elias\AppData\Local\Temp\ccM4DAnB.s:227    .text.cordic_cos:000000000000003c .L26
C:\Users\elias\AppData\Local\Temp\ccM4DAnB.s:245    .text.cordic_cos:000000000000004a .L27
C:\Users\elias\AppData\Local\Temp\ccM4DAnB.s:291    .text.cordic_cos:000000000000007e .L17
C:\Users\elias\AppData\Local\Temp\ccM4DAnB.s:337    .text.cordic_sin:0000000000000022 .L29
C:\Users\elias\AppData\Local\Temp\ccM4DAnB.s:418    .text.cordic_sin:0000000000000080 .L36
C:\Users\elias\AppData\Local\Temp\ccM4DAnB.s:372    .text.cordic_sin:000000000000004e .L33
C:\Users\elias\AppData\Local\Temp\ccM4DAnB.s:396    .text.cordic_sin:0000000000000068 .L32
C:\Users\elias\AppData\Local\Temp\ccM4DAnB.s:350    .text.cordic_sin:000000000000003c .L37
C:\Users\elias\AppData\Local\Temp\ccM4DAnB.s:368    .text.cordic_sin:000000000000004a .L38
C:\Users\elias\AppData\Local\Temp\ccM4DAnB.s:414    .text.cordic_sin:000000000000007e .L28
C:\Users\elias\AppData\Local\Temp\ccM4DAnB.s:481    .text.cordic_asin:0000000000000030 .L43
C:\Users\elias\AppData\Local\Temp\ccM4DAnB.s:506    .text.cordic_asin:000000000000004c .L42
C:\Users\elias\AppData\Local\Temp\ccM4DAnB.s:460    .text.cordic_asin:000000000000001c .L46
C:\Users\elias\AppData\Local\Temp\ccM4DAnB.s:477    .text.cordic_asin:000000000000002a .L47
C:\Users\elias\AppData\Local\Temp\ccM4DAnB.s:531    .text.cordic_asin:0000000000000068 .L48
C:\Users\elias\AppData\Local\Temp\ccM4DAnB.s:525    .text.cordic_asin:0000000000000064 .L49
C:\Users\elias\AppData\Local\Temp\ccM4DAnB.s:522    .text.cordic_asin:0000000000000062 .L45
C:\Users\elias\AppData\Local\Temp\ccM4DAnB.s:601    .text.cordic_acos:0000000000000034 .L54
C:\Users\elias\AppData\Local\Temp\ccM4DAnB.s:626    .text.cordic_acos:0000000000000050 .L53
C:\Users\elias\AppData\Local\Temp\ccM4DAnB.s:580    .text.cordic_acos:0000000000000020 .L56
C:\Users\elias\AppData\Local\Temp\ccM4DAnB.s:597    .text.cordic_acos:000000000000002e .L57
C:\Users\elias\AppData\Local\Temp\ccM4DAnB.s:638    .text.cordic_acos:000000000000005c .L50
C:\Users\elias\AppData\Local\Temp\ccM4DAnB.s:680    .text.cordic_tan:0000000000000022 .L59
C:\Users\elias\AppData\Local\Temp\ccM4DAnB.s:770    .text.cordic_tan:000000000000008e .L66
C:\Users\elias\AppData\Local\Temp\ccM4DAnB.s:715    .text.cordic_tan:0000000000000050 .L63
C:\Users\elias\AppData\Local\Temp\ccM4DAnB.s:739    .text.cordic_tan:000000000000006c .L62
C:\Users\elias\AppData\Local\Temp\ccM4DAnB.s:693    .text.cordic_tan:000000000000003c .L67
C:\Users\elias\AppData\Local\Temp\ccM4DAnB.s:711    .text.cordic_tan:000000000000004a .L68
C:\Users\elias\AppData\Local\Temp\ccM4DAnB.s:760    .text.cordic_tan:0000000000000086 .L64
C:\Users\elias\AppData\Local\Temp\ccM4DAnB.s:881    .text.cordic_rectangular_polar:0000000000000064 .L77
C:\Users\elias\AppData\Local\Temp\ccM4DAnB.s:834    .text.cordic_rectangular_polar:0000000000000032 .L74
C:\Users\elias\AppData\Local\Temp\ccM4DAnB.s:858    .text.cordic_rectangular_polar:000000000000004e .L73
C:\Users\elias\AppData\Local\Temp\ccM4DAnB.s:812    .text.cordic_rectangular_polar:000000000000001e .L78
C:\Users\elias\AppData\Local\Temp\ccM4DAnB.s:830    .text.cordic_rectangular_polar:000000000000002c .L79
C:\Users\elias\AppData\Local\Temp\ccM4DAnB.s:800    .text.cordic_rectangular_polar:000000000000000a .L70
C:\Users\elias\AppData\Local\Temp\ccM4DAnB.s:1039   .text.cordic_polar_rectangular:000000000000008c .L86
C:\Users\elias\AppData\Local\Temp\ccM4DAnB.s:988    .text.cordic_polar_rectangular:0000000000000056 .L85
GAS LISTING C:\Users\elias\AppData\Local\Temp\ccM4DAnB.s 			page 87


C:\Users\elias\AppData\Local\Temp\ccM4DAnB.s:1013   .text.cordic_polar_rectangular:0000000000000070 .L84
C:\Users\elias\AppData\Local\Temp\ccM4DAnB.s:967    .text.cordic_polar_rectangular:0000000000000044 .L87
C:\Users\elias\AppData\Local\Temp\ccM4DAnB.s:984    .text.cordic_polar_rectangular:0000000000000052 .L88
C:\Users\elias\AppData\Local\Temp\ccM4DAnB.s:954    .text.cordic_polar_rectangular:000000000000002e .L81
C:\Users\elias\AppData\Local\Temp\ccM4DAnB.s:1117   .text.cordic_sqrt:0000000000000040 .L89
C:\Users\elias\AppData\Local\Temp\ccM4DAnB.s:1144   .text.cordic_sqrt:000000000000005c .L98
C:\Users\elias\AppData\Local\Temp\ccM4DAnB.s:1124   .text.cordic_sqrt:0000000000000044 .L105
C:\Users\elias\AppData\Local\Temp\ccM4DAnB.s:1077   .text.cordic_sqrt:0000000000000018 .L91
C:\Users\elias\AppData\Local\Temp\ccM4DAnB.s:1113   .text.cordic_sqrt:000000000000003e .L95
C:\Users\elias\AppData\Local\Temp\ccM4DAnB.s:1093   .text.cordic_sqrt:000000000000002a .L96
C:\Users\elias\AppData\Local\Temp\ccM4DAnB.s:1149   .text.cordic_sqrt:0000000000000062 .L106
C:\Users\elias\AppData\Local\Temp\ccM4DAnB.s:1128   .text.cordic_sqrt:0000000000000048 .L92
C:\Users\elias\AppData\Local\Temp\ccM4DAnB.s:1090   .text.cordic_sqrt:0000000000000028 .L94
C:\Users\elias\AppData\Local\Temp\ccM4DAnB.s:1232   .text.cordic_arctanh:000000000000004a .L114
C:\Users\elias\AppData\Local\Temp\ccM4DAnB.s:1247   .text.cordic_arctanh:0000000000000056 .L115
C:\Users\elias\AppData\Local\Temp\ccM4DAnB.s:1280   .text.cordic_arctanh:000000000000007a .L107
C:\Users\elias\AppData\Local\Temp\ccM4DAnB.s:1199   .text.cordic_arctanh:0000000000000024 .L108
C:\Users\elias\AppData\Local\Temp\ccM4DAnB.s:1214   .text.cordic_arctanh:0000000000000032 .L110
C:\Users\elias\AppData\Local\Temp\ccM4DAnB.s:1285   .text.cordic_arctanh:000000000000007c .L116
C:\Users\elias\AppData\Local\Temp\ccM4DAnB.s:1220   .text.cordic_arctanh:0000000000000038 .L117
C:\Users\elias\AppData\Local\Temp\ccM4DAnB.s:1350   .text.cordic_ln:000000000000002c .L119
C:\Users\elias\AppData\Local\Temp\ccM4DAnB.s:1335   .text.cordic_ln:000000000000001c .L120
C:\Users\elias\AppData\Local\Temp\ccM4DAnB.s:1486   .text.cordic_arccosh:0000000000000052 .L132
C:\Users\elias\AppData\Local\Temp\ccM4DAnB.s:1501   .text.cordic_arccosh:000000000000005a .L133
C:\Users\elias\AppData\Local\Temp\ccM4DAnB.s:1426   .text.cordic_arccosh:0000000000000010 .L129
C:\Users\elias\AppData\Local\Temp\ccM4DAnB.s:1446   .text.cordic_arccosh:0000000000000026 .L127
C:\Users\elias\AppData\Local\Temp\ccM4DAnB.s:1528   .text.cordic_arccosh:0000000000000076 .L134
C:\Users\elias\AppData\Local\Temp\ccM4DAnB.s:1590   .text.cordic_arcsinh:000000000000001a .L138
C:\Users\elias\AppData\Local\Temp\ccM4DAnB.s:1612   .text.cordic_arcsinh:0000000000000030 .L141
C:\Users\elias\AppData\Local\Temp\ccM4DAnB.s:1575   .text.cordic_arcsinh:0000000000000010 .L136
C:\Users\elias\AppData\Local\Temp\ccM4DAnB.s:1722   .text.cordic_sinh:000000000000004a .L143
C:\Users\elias\AppData\Local\Temp\ccM4DAnB.s:1737   .text.cordic_sinh:0000000000000058 .L149
C:\Users\elias\AppData\Local\Temp\ccM4DAnB.s:1770   .text.cordic_sinh:000000000000007a .L142
C:\Users\elias\AppData\Local\Temp\ccM4DAnB.s:1689   .text.cordic_sinh:0000000000000026 .L150
C:\Users\elias\AppData\Local\Temp\ccM4DAnB.s:1704   .text.cordic_sinh:0000000000000032 .L145
C:\Users\elias\AppData\Local\Temp\ccM4DAnB.s:1777   .text.cordic_sinh:000000000000007e .L146
C:\Users\elias\AppData\Local\Temp\ccM4DAnB.s:1710   .text.cordic_sinh:0000000000000038 .L151
C:\Users\elias\AppData\Local\Temp\ccM4DAnB.s:1869   .text.cordic_cosh:000000000000004a .L153
C:\Users\elias\AppData\Local\Temp\ccM4DAnB.s:1884   .text.cordic_cosh:0000000000000058 .L159
C:\Users\elias\AppData\Local\Temp\ccM4DAnB.s:1917   .text.cordic_cosh:000000000000007a .L152
C:\Users\elias\AppData\Local\Temp\ccM4DAnB.s:1836   .text.cordic_cosh:0000000000000026 .L160
C:\Users\elias\AppData\Local\Temp\ccM4DAnB.s:1851   .text.cordic_cosh:0000000000000032 .L155
C:\Users\elias\AppData\Local\Temp\ccM4DAnB.s:1924   .text.cordic_cosh:000000000000007e .L156
C:\Users\elias\AppData\Local\Temp\ccM4DAnB.s:1857   .text.cordic_cosh:0000000000000038 .L161
C:\Users\elias\AppData\Local\Temp\ccM4DAnB.s:2040   .text.cordic_exp:0000000000000024 .L165
C:\Users\elias\AppData\Local\Temp\ccM4DAnB.s:2027   .text.cordic_exp:000000000000001a .L166
C:\Users\elias\AppData\Local\Temp\ccM4DAnB.s:2098   .text.cordic_exp:000000000000005e .L167
C:\Users\elias\AppData\Local\Temp\ccM4DAnB.s:2109   .text.cordic_exp:0000000000000068 .L179
C:\Users\elias\AppData\Local\Temp\ccM4DAnB.s:2139   .text.cordic_exp:0000000000000082 .L171
C:\Users\elias\AppData\Local\Temp\ccM4DAnB.s:2068   .text.cordic_exp:0000000000000044 .L180
C:\Users\elias\AppData\Local\Temp\ccM4DAnB.s:2081   .text.cordic_exp:000000000000004c .L169
C:\Users\elias\AppData\Local\Temp\ccM4DAnB.s:2176   .text.cordic_exp:00000000000000a4 .L170
C:\Users\elias\AppData\Local\Temp\ccM4DAnB.s:2087   .text.cordic_exp:0000000000000052 .L181
C:\Users\elias\AppData\Local\Temp\ccM4DAnB.s:2187   .text.cordic_exp:00000000000000ac .L176
C:\Users\elias\AppData\Local\Temp\ccM4DAnB.s:2154   .text.cordic_exp:0000000000000090 .L174
C:\Users\elias\AppData\Local\Temp\ccM4DAnB.s:3955   .debug_abbrev:0000000000000000 .Ldebug_abbrev0
C:\Users\elias\AppData\Local\Temp\ccM4DAnB.s:7067   .debug_str:0000000000000151 .LASF57
GAS LISTING C:\Users\elias\AppData\Local\Temp\ccM4DAnB.s 			page 88


C:\Users\elias\AppData\Local\Temp\ccM4DAnB.s:7091   .debug_str:0000000000000276 .LASF58
C:\Users\elias\AppData\Local\Temp\ccM4DAnB.s:7125   .debug_str:0000000000000361 .LASF59
C:\Users\elias\AppData\Local\Temp\ccM4DAnB.s:6863   .debug_ranges:0000000000000000 .Ldebug_ranges0
C:\Users\elias\AppData\Local\Temp\ccM4DAnB.s:7007   .debug_line:0000000000000000 .Ldebug_line0
C:\Users\elias\AppData\Local\Temp\ccM4DAnB.s:7063   .debug_str:000000000000012e .LASF0
C:\Users\elias\AppData\Local\Temp\ccM4DAnB.s:7061   .debug_str:0000000000000120 .LASF1
C:\Users\elias\AppData\Local\Temp\ccM4DAnB.s:7023   .debug_str:0000000000000040 .LASF2
C:\Users\elias\AppData\Local\Temp\ccM4DAnB.s:7077   .debug_str:000000000000020b .LASF3
C:\Users\elias\AppData\Local\Temp\ccM4DAnB.s:7105   .debug_str:00000000000002df .LASF5
C:\Users\elias\AppData\Local\Temp\ccM4DAnB.s:7049   .debug_str:00000000000000d6 .LASF4
C:\Users\elias\AppData\Local\Temp\ccM4DAnB.s:7027   .debug_str:0000000000000050 .LASF6
C:\Users\elias\AppData\Local\Temp\ccM4DAnB.s:7101   .debug_str:00000000000002bd .LASF7
C:\Users\elias\AppData\Local\Temp\ccM4DAnB.s:7045   .debug_str:00000000000000bc .LASF8
C:\Users\elias\AppData\Local\Temp\ccM4DAnB.s:7065   .debug_str:000000000000013a .LASF9
C:\Users\elias\AppData\Local\Temp\ccM4DAnB.s:7071   .debug_str:00000000000001d4 .LASF10
C:\Users\elias\AppData\Local\Temp\ccM4DAnB.s:7085   .debug_str:0000000000000257 .LASF11
C:\Users\elias\AppData\Local\Temp\ccM4DAnB.s:7069   .debug_str:00000000000001cb .LASF12
C:\Users\elias\AppData\Local\Temp\ccM4DAnB.s:7107   .debug_str:00000000000002e9 .LASF13
C:\Users\elias\AppData\Local\Temp\ccM4DAnB.s:7029   .debug_str:000000000000005b .LASF14
C:\Users\elias\AppData\Local\Temp\ccM4DAnB.s:7037   .debug_str:0000000000000096 .LASF15
C:\Users\elias\AppData\Local\Temp\ccM4DAnB.s:7047   .debug_str:00000000000000ca .LASF16
C:\Users\elias\AppData\Local\Temp\ccM4DAnB.s:7113   .debug_str:000000000000030a .LASF17
C:\Users\elias\AppData\Local\Temp\ccM4DAnB.s:7073   .debug_str:00000000000001e1 .LASF18
C:\Users\elias\AppData\Local\Temp\ccM4DAnB.s:7083   .debug_str:0000000000000249 .LASF19
C:\Users\elias\AppData\Local\Temp\ccM4DAnB.s:7115   .debug_str:0000000000000328 .LASF20
C:\Users\elias\AppData\Local\Temp\ccM4DAnB.s:7079   .debug_str:000000000000021e .LASF21
C:\Users\elias\AppData\Local\Temp\ccM4DAnB.s:7103   .debug_str:00000000000002cf .LASF22
C:\Users\elias\AppData\Local\Temp\ccM4DAnB.s:7093   .debug_str:0000000000000284 .LASF23
C:\Users\elias\AppData\Local\Temp\ccM4DAnB.s:7009   .debug_str:0000000000000000 .LASF24
C:\Users\elias\AppData\Local\Temp\ccM4DAnB.s:7025   .debug_str:000000000000004a .LASF26
C:\Users\elias\AppData\Local\Temp\ccM4DAnB.s:7019   .debug_str:000000000000002b .LASF25
C:\Users\elias\AppData\Local\Temp\ccM4DAnB.s:7123   .debug_str:000000000000035b .LASF27
C:\Users\elias\AppData\Local\Temp\ccM4DAnB.s:2285   .text.isOdd:0000000000000000 .LFB21
C:\Users\elias\AppData\Local\Temp\ccM4DAnB.s:2295   .text.isOdd:0000000000000004 .LFE21
C:\Users\elias\AppData\Local\Temp\ccM4DAnB.s:4666   .debug_loc:0000000000000000 .LLST111
C:\Users\elias\AppData\Local\Temp\ccM4DAnB.s:7017   .debug_str:0000000000000024 .LASF28
C:\Users\elias\AppData\Local\Temp\ccM4DAnB.s:2265   .text.isEven:0000000000000000 .LFB20
C:\Users\elias\AppData\Local\Temp\ccM4DAnB.s:2278   .text.isEven:0000000000000008 .LFE20
C:\Users\elias\AppData\Local\Temp\ccM4DAnB.s:4680   .debug_loc:0000000000000021 .LLST110
C:\Users\elias\AppData\Local\Temp\ccM4DAnB.s:7059   .debug_str:0000000000000115 .LASF29
C:\Users\elias\AppData\Local\Temp\ccM4DAnB.s:7031   .debug_str:0000000000000067 .LASF30
C:\Users\elias\AppData\Local\Temp\ccM4DAnB.s:2205   .text.cordic_pow:0000000000000000 .LFB18
C:\Users\elias\AppData\Local\Temp\ccM4DAnB.s:2239   .text.cordic_pow:0000000000000024 .LFE18
C:\Users\elias\AppData\Local\Temp\ccM4DAnB.s:4701   .debug_loc:0000000000000050 .LLST106
C:\Users\elias\AppData\Local\Temp\ccM4DAnB.s:7051   .debug_str:00000000000000df .LASF31
C:\Users\elias\AppData\Local\Temp\ccM4DAnB.s:4719   .debug_loc:000000000000007c .LLST107
C:\Users\elias\AppData\Local\Temp\ccM4DAnB.s:7043   .debug_str:00000000000000b3 .LASF32
C:\Users\elias\AppData\Local\Temp\ccM4DAnB.s:4733   .debug_loc:000000000000009d .LLST108
C:\Users\elias\AppData\Local\Temp\ccM4DAnB.s:2222   .text.cordic_pow:0000000000000010 .LVL309
C:\Users\elias\AppData\Local\Temp\ccM4DAnB.s:2237   .text.cordic_pow:0000000000000024 .LVL311
C:\Users\elias\AppData\Local\Temp\ccM4DAnB.s:7021   .debug_str:0000000000000035 .LASF33
C:\Users\elias\AppData\Local\Temp\ccM4DAnB.s:1995   .text.cordic_exp:0000000000000000 .LFB17
C:\Users\elias\AppData\Local\Temp\ccM4DAnB.s:2198   .text.cordic_exp:00000000000000b8 .LFE17
C:\Users\elias\AppData\Local\Temp\ccM4DAnB.s:4751   .debug_loc:00000000000000c9 .LLST96
C:\Users\elias\AppData\Local\Temp\ccM4DAnB.s:7015   .debug_str:000000000000001e .LASF34
C:\Users\elias\AppData\Local\Temp\ccM4DAnB.s:4765   .debug_loc:00000000000000ea .LLST97
C:\Users\elias\AppData\Local\Temp\ccM4DAnB.s:4784   .debug_loc:000000000000011e .LLST98
GAS LISTING C:\Users\elias\AppData\Local\Temp\ccM4DAnB.s 			page 89


C:\Users\elias\AppData\Local\Temp\ccM4DAnB.s:7053   .debug_str:00000000000000e4 .LASF35
C:\Users\elias\AppData\Local\Temp\ccM4DAnB.s:4800   .debug_loc:0000000000000148 .LLST99
C:\Users\elias\AppData\Local\Temp\ccM4DAnB.s:4837   .debug_loc:000000000000019c .LLST100
C:\Users\elias\AppData\Local\Temp\ccM4DAnB.s:4874   .debug_loc:00000000000001fa .LLST101
C:\Users\elias\AppData\Local\Temp\ccM4DAnB.s:4887   .debug_loc:000000000000021b .LLST102
C:\Users\elias\AppData\Local\Temp\ccM4DAnB.s:4899   .debug_loc:000000000000023a .LLST104
C:\Users\elias\AppData\Local\Temp\ccM4DAnB.s:4920   .debug_loc:0000000000000270 .LLST105
C:\Users\elias\AppData\Local\Temp\ccM4DAnB.s:2000   .text.cordic_exp:0000000000000000 .LBB69
C:\Users\elias\AppData\Local\Temp\ccM4DAnB.s:4947   .debug_loc:00000000000002b3 .LLST103
C:\Users\elias\AppData\Local\Temp\ccM4DAnB.s:7127   .debug_str:00000000000003a9 .LASF36
C:\Users\elias\AppData\Local\Temp\ccM4DAnB.s:1947   .text.cordic_tanh:0000000000000000 .LFB16
C:\Users\elias\AppData\Local\Temp\ccM4DAnB.s:1988   .text.cordic_tanh:000000000000002e .LFE16
C:\Users\elias\AppData\Local\Temp\ccM4DAnB.s:4961   .debug_loc:00000000000002d4 .LLST94
C:\Users\elias\AppData\Local\Temp\ccM4DAnB.s:4979   .debug_loc:0000000000000300 .LLST95
C:\Users\elias\AppData\Local\Temp\ccM4DAnB.s:1966   .text.cordic_tanh:0000000000000012 .LVL274
C:\Users\elias\AppData\Local\Temp\ccM4DAnB.s:1971   .text.cordic_tanh:000000000000001e .LVL275
C:\Users\elias\AppData\Local\Temp\ccM4DAnB.s:7011   .debug_str:000000000000000b .LASF37
C:\Users\elias\AppData\Local\Temp\ccM4DAnB.s:1800   .text.cordic_cosh:0000000000000000 .LFB15
C:\Users\elias\AppData\Local\Temp\ccM4DAnB.s:1940   .text.cordic_cosh:000000000000008a .LFE15
C:\Users\elias\AppData\Local\Temp\ccM4DAnB.s:4997   .debug_loc:000000000000032c .LLST87
C:\Users\elias\AppData\Local\Temp\ccM4DAnB.s:5011   .debug_loc:000000000000034d .LLST88
C:\Users\elias\AppData\Local\Temp\ccM4DAnB.s:5030   .debug_loc:0000000000000381 .LLST89
C:\Users\elias\AppData\Local\Temp\ccM4DAnB.s:5046   .debug_loc:00000000000003ab .LLST90
C:\Users\elias\AppData\Local\Temp\ccM4DAnB.s:5065   .debug_loc:00000000000003df .LLST91
C:\Users\elias\AppData\Local\Temp\ccM4DAnB.s:5077   .debug_loc:00000000000003fe .LLST92
C:\Users\elias\AppData\Local\Temp\ccM4DAnB.s:5090   .debug_loc:000000000000041f .LLST93
C:\Users\elias\AppData\Local\Temp\ccM4DAnB.s:7087   .debug_str:000000000000025f .LASF38
C:\Users\elias\AppData\Local\Temp\ccM4DAnB.s:1653   .text.cordic_sinh:0000000000000000 .LFB14
C:\Users\elias\AppData\Local\Temp\ccM4DAnB.s:1793   .text.cordic_sinh:000000000000008a .LFE14
C:\Users\elias\AppData\Local\Temp\ccM4DAnB.s:5112   .debug_loc:0000000000000456 .LLST80
C:\Users\elias\AppData\Local\Temp\ccM4DAnB.s:5126   .debug_loc:0000000000000477 .LLST81
C:\Users\elias\AppData\Local\Temp\ccM4DAnB.s:5145   .debug_loc:00000000000004ab .LLST82
C:\Users\elias\AppData\Local\Temp\ccM4DAnB.s:5161   .debug_loc:00000000000004d5 .LLST83
C:\Users\elias\AppData\Local\Temp\ccM4DAnB.s:5180   .debug_loc:0000000000000509 .LLST84
C:\Users\elias\AppData\Local\Temp\ccM4DAnB.s:5192   .debug_loc:0000000000000528 .LLST85
C:\Users\elias\AppData\Local\Temp\ccM4DAnB.s:5205   .debug_loc:0000000000000549 .LLST86
C:\Users\elias\AppData\Local\Temp\ccM4DAnB.s:7117   .debug_str:000000000000033a .LASF39
C:\Users\elias\AppData\Local\Temp\ccM4DAnB.s:1547   .text.cordic_arcsinh:0000000000000000 .LFB13
C:\Users\elias\AppData\Local\Temp\ccM4DAnB.s:1646   .text.cordic_arcsinh:0000000000000056 .LFE13
C:\Users\elias\AppData\Local\Temp\ccM4DAnB.s:5227   .debug_loc:0000000000000580 .LLST74
C:\Users\elias\AppData\Local\Temp\ccM4DAnB.s:5245   .debug_loc:00000000000005ac .LLST75
C:\Users\elias\AppData\Local\Temp\ccM4DAnB.s:5256   .debug_loc:00000000000005ca .LLST76
C:\Users\elias\AppData\Local\Temp\ccM4DAnB.s:5267   .debug_loc:00000000000005e8 .LLST77
C:\Users\elias\AppData\Local\Temp\ccM4DAnB.s:5280   .debug_loc:0000000000000609 .LLST78
C:\Users\elias\AppData\Local\Temp\ccM4DAnB.s:5294   .debug_loc:000000000000062a .LLST79
C:\Users\elias\AppData\Local\Temp\ccM4DAnB.s:1628   .text.cordic_arcsinh:0000000000000044 .LBB61
C:\Users\elias\AppData\Local\Temp\ccM4DAnB.s:1636   .text.cordic_arcsinh:000000000000004e .LBE61
C:\Users\elias\AppData\Local\Temp\ccM4DAnB.s:1627   .text.cordic_arcsinh:0000000000000044 .LVL228
C:\Users\elias\AppData\Local\Temp\ccM4DAnB.s:7055   .debug_str:00000000000000ed .LASF40
C:\Users\elias\AppData\Local\Temp\ccM4DAnB.s:1397   .text.cordic_arccosh:0000000000000000 .LFB12
C:\Users\elias\AppData\Local\Temp\ccM4DAnB.s:1540   .text.cordic_arccosh:000000000000007c .LFE12
C:\Users\elias\AppData\Local\Temp\ccM4DAnB.s:5326   .debug_loc:0000000000000679 .LLST67
C:\Users\elias\AppData\Local\Temp\ccM4DAnB.s:5349   .debug_loc:00000000000006b1 .LLST68
C:\Users\elias\AppData\Local\Temp\ccM4DAnB.s:5364   .debug_loc:00000000000006da .LLST69
C:\Users\elias\AppData\Local\Temp\ccM4DAnB.s:5383   .debug_loc:000000000000070e .LLST70
C:\Users\elias\AppData\Local\Temp\ccM4DAnB.s:5403   .debug_loc:0000000000000743 .LLST71
C:\Users\elias\AppData\Local\Temp\ccM4DAnB.s:5424   .debug_loc:000000000000077a .LLST72
GAS LISTING C:\Users\elias\AppData\Local\Temp\ccM4DAnB.s 			page 90


C:\Users\elias\AppData\Local\Temp\ccM4DAnB.s:5442   .debug_loc:00000000000007a6 .LLST73
C:\Users\elias\AppData\Local\Temp\ccM4DAnB.s:1467   .text.cordic_arccosh:0000000000000040 .LBB55
C:\Users\elias\AppData\Local\Temp\ccM4DAnB.s:1475   .text.cordic_arccosh:000000000000004a .LBE55
C:\Users\elias\AppData\Local\Temp\ccM4DAnB.s:1466   .text.cordic_arccosh:0000000000000040 .LVL205
C:\Users\elias\AppData\Local\Temp\ccM4DAnB.s:7097   .debug_str:00000000000002a1 .LASF41
C:\Users\elias\AppData\Local\Temp\ccM4DAnB.s:1308   .text.cordic_ln:0000000000000000 .LFB11
C:\Users\elias\AppData\Local\Temp\ccM4DAnB.s:1390   .text.cordic_ln:0000000000000052 .LFE11
C:\Users\elias\AppData\Local\Temp\ccM4DAnB.s:5458   .debug_loc:00000000000007d0 .LLST61
C:\Users\elias\AppData\Local\Temp\ccM4DAnB.s:5476   .debug_loc:00000000000007fc .LLST62
C:\Users\elias\AppData\Local\Temp\ccM4DAnB.s:5490   .debug_loc:000000000000081d .LLST63
C:\Users\elias\AppData\Local\Temp\ccM4DAnB.s:7075   .debug_str:0000000000000201 .LASF42
C:\Users\elias\AppData\Local\Temp\ccM4DAnB.s:5502   .debug_loc:000000000000083c .LLST64
C:\Users\elias\AppData\Local\Temp\ccM4DAnB.s:5531   .debug_loc:0000000000000882 .LLST65
C:\Users\elias\AppData\Local\Temp\ccM4DAnB.s:5544   .debug_loc:00000000000008a3 .LLST66
C:\Users\elias\AppData\Local\Temp\ccM4DAnB.s:1361   .text.cordic_ln:000000000000003c .LBB48
C:\Users\elias\AppData\Local\Temp\ccM4DAnB.s:1360   .text.cordic_ln:000000000000003c .LVL196
C:\Users\elias\AppData\Local\Temp\ccM4DAnB.s:7111   .debug_str:00000000000002fb .LASF43
C:\Users\elias\AppData\Local\Temp\ccM4DAnB.s:1162   .text.cordic_arctanh:0000000000000000 .LFB10
C:\Users\elias\AppData\Local\Temp\ccM4DAnB.s:1301   .text.cordic_arctanh:0000000000000086 .LFE10
C:\Users\elias\AppData\Local\Temp\ccM4DAnB.s:5557   .debug_loc:00000000000008c4 .LLST55
C:\Users\elias\AppData\Local\Temp\ccM4DAnB.s:5572   .debug_loc:00000000000008ed .LLST56
C:\Users\elias\AppData\Local\Temp\ccM4DAnB.s:5583   .debug_loc:000000000000090b .LLST57
C:\Users\elias\AppData\Local\Temp\ccM4DAnB.s:5602   .debug_loc:000000000000093f .LLST58
C:\Users\elias\AppData\Local\Temp\ccM4DAnB.s:5618   .debug_loc:0000000000000969 .LLST59
C:\Users\elias\AppData\Local\Temp\ccM4DAnB.s:5634   .debug_loc:0000000000000993 .LLST60
C:\Users\elias\AppData\Local\Temp\ccM4DAnB.s:7109   .debug_str:00000000000002ef .LASF44
C:\Users\elias\AppData\Local\Temp\ccM4DAnB.s:1053   .text.cordic_sqrt:0000000000000000 .LFB9
C:\Users\elias\AppData\Local\Temp\ccM4DAnB.s:1155   .text.cordic_sqrt:000000000000006c .LFE9
C:\Users\elias\AppData\Local\Temp\ccM4DAnB.s:5656   .debug_loc:00000000000009ca .LLST51
C:\Users\elias\AppData\Local\Temp\ccM4DAnB.s:7039   .debug_str:000000000000009c .LASF45
C:\Users\elias\AppData\Local\Temp\ccM4DAnB.s:5674   .debug_loc:00000000000009f6 .LLST52
C:\Users\elias\AppData\Local\Temp\ccM4DAnB.s:5723   .debug_loc:0000000000000a67 .LLST53
C:\Users\elias\AppData\Local\Temp\ccM4DAnB.s:1095   .text.cordic_sqrt:000000000000002a .LBB43
C:\Users\elias\AppData\Local\Temp\ccM4DAnB.s:1118   .text.cordic_sqrt:0000000000000040 .LBE43
C:\Users\elias\AppData\Local\Temp\ccM4DAnB.s:5730   .debug_loc:0000000000000a7a .LLST54
C:\Users\elias\AppData\Local\Temp\ccM4DAnB.s:7057   .debug_str:00000000000000fc .LASF46
C:\Users\elias\AppData\Local\Temp\ccM4DAnB.s:922    .text.cordic_polar_rectangular:0000000000000000 .LFB8
C:\Users\elias\AppData\Local\Temp\ccM4DAnB.s:1046   .text.cordic_polar_rectangular:0000000000000094 .LFE8
C:\Users\elias\AppData\Local\Temp\ccM4DAnB.s:5749   .debug_loc:0000000000000aa0 .LLST45
C:\Users\elias\AppData\Local\Temp\ccM4DAnB.s:5764   .debug_loc:0000000000000ac9 .LLST46
C:\Users\elias\AppData\Local\Temp\ccM4DAnB.s:5775   .debug_loc:0000000000000ae7 .LLST47
C:\Users\elias\AppData\Local\Temp\ccM4DAnB.s:5796   .debug_loc:0000000000000b1d .LLST48
C:\Users\elias\AppData\Local\Temp\ccM4DAnB.s:5815   .debug_loc:0000000000000b4a .LLST49
C:\Users\elias\AppData\Local\Temp\ccM4DAnB.s:962    .text.cordic_polar_rectangular:0000000000000040 .LBB42
C:\Users\elias\AppData\Local\Temp\ccM4DAnB.s:1014   .text.cordic_polar_rectangular:0000000000000070 .LBE42
C:\Users\elias\AppData\Local\Temp\ccM4DAnB.s:5832   .debug_loc:0000000000000b75 .LLST50
C:\Users\elias\AppData\Local\Temp\ccM4DAnB.s:7035   .debug_str:000000000000007d .LASF47
C:\Users\elias\AppData\Local\Temp\ccM4DAnB.s:783    .text.cordic_rectangular_polar:0000000000000000 .LFB7
C:\Users\elias\AppData\Local\Temp\ccM4DAnB.s:915    .text.cordic_rectangular_polar:000000000000007e .LFE7
C:\Users\elias\AppData\Local\Temp\ccM4DAnB.s:5859   .debug_loc:0000000000000bb8 .LLST39
C:\Users\elias\AppData\Local\Temp\ccM4DAnB.s:5877   .debug_loc:0000000000000be4 .LLST40
C:\Users\elias\AppData\Local\Temp\ccM4DAnB.s:5888   .debug_loc:0000000000000c02 .LLST41
C:\Users\elias\AppData\Local\Temp\ccM4DAnB.s:5920   .debug_loc:0000000000000c4b .LLST42
C:\Users\elias\AppData\Local\Temp\ccM4DAnB.s:807    .text.cordic_rectangular_polar:000000000000001a .LBB37
C:\Users\elias\AppData\Local\Temp\ccM4DAnB.s:859    .text.cordic_rectangular_polar:000000000000004e .LBE37
C:\Users\elias\AppData\Local\Temp\ccM4DAnB.s:5945   .debug_loc:0000000000000c8c .LLST43
C:\Users\elias\AppData\Local\Temp\ccM4DAnB.s:896    .text.cordic_rectangular_polar:0000000000000072 .LBB38
GAS LISTING C:\Users\elias\AppData\Local\Temp\ccM4DAnB.s 			page 91


C:\Users\elias\AppData\Local\Temp\ccM4DAnB.s:5972   .debug_loc:0000000000000ccf .LLST44
C:\Users\elias\AppData\Local\Temp\ccM4DAnB.s:7119   .debug_str:0000000000000349 .LASF48
C:\Users\elias\AppData\Local\Temp\ccM4DAnB.s:651    .text.cordic_tan:0000000000000000 .LFB6
C:\Users\elias\AppData\Local\Temp\ccM4DAnB.s:776    .text.cordic_tan:0000000000000096 .LFE6
C:\Users\elias\AppData\Local\Temp\ccM4DAnB.s:5979   .debug_loc:0000000000000ce2 .LLST33
C:\Users\elias\AppData\Local\Temp\ccM4DAnB.s:6016   .debug_loc:0000000000000d31 .LLST34
C:\Users\elias\AppData\Local\Temp\ccM4DAnB.s:6035   .debug_loc:0000000000000d5e .LLST35
C:\Users\elias\AppData\Local\Temp\ccM4DAnB.s:6052   .debug_loc:0000000000000d89 .LLST36
C:\Users\elias\AppData\Local\Temp\ccM4DAnB.s:6085   .debug_loc:0000000000000dd4 .LLST37
C:\Users\elias\AppData\Local\Temp\ccM4DAnB.s:688    .text.cordic_tan:0000000000000038 .LBB36
C:\Users\elias\AppData\Local\Temp\ccM4DAnB.s:740    .text.cordic_tan:000000000000006c .LBE36
C:\Users\elias\AppData\Local\Temp\ccM4DAnB.s:6096   .debug_loc:0000000000000df2 .LLST38
C:\Users\elias\AppData\Local\Temp\ccM4DAnB.s:7095   .debug_str:0000000000000295 .LASF49
C:\Users\elias\AppData\Local\Temp\ccM4DAnB.s:548    .text.cordic_acos:0000000000000000 .LFB5
C:\Users\elias\AppData\Local\Temp\ccM4DAnB.s:644    .text.cordic_acos:0000000000000060 .LFE5
C:\Users\elias\AppData\Local\Temp\ccM4DAnB.s:7121   .debug_str:0000000000000354 .LASF50
C:\Users\elias\AppData\Local\Temp\ccM4DAnB.s:6123   .debug_loc:0000000000000e35 .LLST27
C:\Users\elias\AppData\Local\Temp\ccM4DAnB.s:6137   .debug_loc:0000000000000e56 .LLST28
C:\Users\elias\AppData\Local\Temp\ccM4DAnB.s:6149   .debug_loc:0000000000000e75 .LLST29
C:\Users\elias\AppData\Local\Temp\ccM4DAnB.s:6162   .debug_loc:0000000000000e95 .LLST30
C:\Users\elias\AppData\Local\Temp\ccM4DAnB.s:6179   .debug_loc:0000000000000ec1 .LLST31
C:\Users\elias\AppData\Local\Temp\ccM4DAnB.s:6190   .debug_loc:0000000000000edf .LLST32
C:\Users\elias\AppData\Local\Temp\ccM4DAnB.s:7081   .debug_str:000000000000023d .LASF51
C:\Users\elias\AppData\Local\Temp\ccM4DAnB.s:431    .text.cordic_asin:0000000000000000 .LFB4
C:\Users\elias\AppData\Local\Temp\ccM4DAnB.s:541    .text.cordic_asin:0000000000000076 .LFE4
C:\Users\elias\AppData\Local\Temp\ccM4DAnB.s:6222   .debug_loc:0000000000000f2e .LLST21
C:\Users\elias\AppData\Local\Temp\ccM4DAnB.s:6236   .debug_loc:0000000000000f4f .LLST22
C:\Users\elias\AppData\Local\Temp\ccM4DAnB.s:6249   .debug_loc:0000000000000f6f .LLST23
C:\Users\elias\AppData\Local\Temp\ccM4DAnB.s:6261   .debug_loc:0000000000000f8e .LLST24
C:\Users\elias\AppData\Local\Temp\ccM4DAnB.s:6313   .debug_loc:0000000000000ff5 .LLST25
C:\Users\elias\AppData\Local\Temp\ccM4DAnB.s:7013   .debug_str:0000000000000017 .LASF52
C:\Users\elias\AppData\Local\Temp\ccM4DAnB.s:6324   .debug_loc:0000000000001013 .LLST26
C:\Users\elias\AppData\Local\Temp\ccM4DAnB.s:7033   .debug_str:0000000000000072 .LASF53
C:\Users\elias\AppData\Local\Temp\ccM4DAnB.s:308    .text.cordic_sin:0000000000000000 .LFB3
C:\Users\elias\AppData\Local\Temp\ccM4DAnB.s:424    .text.cordic_sin:0000000000000088 .LFE3
C:\Users\elias\AppData\Local\Temp\ccM4DAnB.s:6356   .debug_loc:0000000000001062 .LLST15
C:\Users\elias\AppData\Local\Temp\ccM4DAnB.s:6377   .debug_loc:000000000000109a .LLST16
C:\Users\elias\AppData\Local\Temp\ccM4DAnB.s:6396   .debug_loc:00000000000010c7 .LLST17
C:\Users\elias\AppData\Local\Temp\ccM4DAnB.s:6413   .debug_loc:00000000000010f2 .LLST18
C:\Users\elias\AppData\Local\Temp\ccM4DAnB.s:6446   .debug_loc:000000000000113d .LLST19
C:\Users\elias\AppData\Local\Temp\ccM4DAnB.s:345    .text.cordic_sin:0000000000000038 .LBB29
C:\Users\elias\AppData\Local\Temp\ccM4DAnB.s:397    .text.cordic_sin:0000000000000068 .LBE29
C:\Users\elias\AppData\Local\Temp\ccM4DAnB.s:6457   .debug_loc:000000000000115b .LLST20
C:\Users\elias\AppData\Local\Temp\ccM4DAnB.s:7089   .debug_str:000000000000026b .LASF54
C:\Users\elias\AppData\Local\Temp\ccM4DAnB.s:185    .text.cordic_cos:0000000000000000 .LFB2
C:\Users\elias\AppData\Local\Temp\ccM4DAnB.s:301    .text.cordic_cos:0000000000000088 .LFE2
C:\Users\elias\AppData\Local\Temp\ccM4DAnB.s:6484   .debug_loc:000000000000119e .LLST9
C:\Users\elias\AppData\Local\Temp\ccM4DAnB.s:6505   .debug_loc:00000000000011d6 .LLST10
C:\Users\elias\AppData\Local\Temp\ccM4DAnB.s:6524   .debug_loc:0000000000001203 .LLST11
C:\Users\elias\AppData\Local\Temp\ccM4DAnB.s:6541   .debug_loc:000000000000122e .LLST12
C:\Users\elias\AppData\Local\Temp\ccM4DAnB.s:6574   .debug_loc:0000000000001279 .LLST13
C:\Users\elias\AppData\Local\Temp\ccM4DAnB.s:222    .text.cordic_cos:0000000000000038 .LBB28
C:\Users\elias\AppData\Local\Temp\ccM4DAnB.s:274    .text.cordic_cos:0000000000000068 .LBE28
C:\Users\elias\AppData\Local\Temp\ccM4DAnB.s:6585   .debug_loc:0000000000001297 .LLST14
C:\Users\elias\AppData\Local\Temp\ccM4DAnB.s:7099   .debug_str:00000000000002ab .LASF55
C:\Users\elias\AppData\Local\Temp\ccM4DAnB.s:104    .text.cordic_hypotenuse:0000000000000000 .LFB1
C:\Users\elias\AppData\Local\Temp\ccM4DAnB.s:178    .text.cordic_hypotenuse:0000000000000046 .LFE1
GAS LISTING C:\Users\elias\AppData\Local\Temp\ccM4DAnB.s 			page 92


C:\Users\elias\AppData\Local\Temp\ccM4DAnB.s:6612   .debug_loc:00000000000012da .LLST5
C:\Users\elias\AppData\Local\Temp\ccM4DAnB.s:6630   .debug_loc:0000000000001306 .LLST6
C:\Users\elias\AppData\Local\Temp\ccM4DAnB.s:6648   .debug_loc:0000000000001332 .LLST7
C:\Users\elias\AppData\Local\Temp\ccM4DAnB.s:124    .text.cordic_hypotenuse:0000000000000012 .LBB27
C:\Users\elias\AppData\Local\Temp\ccM4DAnB.s:165    .text.cordic_hypotenuse:0000000000000036 .LBE27
C:\Users\elias\AppData\Local\Temp\ccM4DAnB.s:6659   .debug_loc:0000000000001350 .LLST8
C:\Users\elias\AppData\Local\Temp\ccM4DAnB.s:7041   .debug_str:00000000000000a7 .LASF56
C:\Users\elias\AppData\Local\Temp\ccM4DAnB.s:14     .text.cordic_atan:0000000000000000 .LFB0
C:\Users\elias\AppData\Local\Temp\ccM4DAnB.s:97     .text.cordic_atan:0000000000000052 .LFE0
C:\Users\elias\AppData\Local\Temp\ccM4DAnB.s:6686   .debug_loc:0000000000001393 .LLST0
C:\Users\elias\AppData\Local\Temp\ccM4DAnB.s:6697   .debug_loc:00000000000013b1 .LLST1
C:\Users\elias\AppData\Local\Temp\ccM4DAnB.s:6708   .debug_loc:00000000000013cf .LLST2
C:\Users\elias\AppData\Local\Temp\ccM4DAnB.s:6724   .debug_loc:00000000000013f9 .LLST3
C:\Users\elias\AppData\Local\Temp\ccM4DAnB.s:41     .text.cordic_atan:0000000000000020 .LBB26
C:\Users\elias\AppData\Local\Temp\ccM4DAnB.s:93     .text.cordic_atan:0000000000000050 .LBE26
C:\Users\elias\AppData\Local\Temp\ccM4DAnB.s:6735   .debug_loc:0000000000001417 .LLST4
C:\Users\elias\AppData\Local\Temp\ccM4DAnB.s:2246   .text.cordic_abs:0000000000000000 .LFB19
C:\Users\elias\AppData\Local\Temp\ccM4DAnB.s:2258   .text.cordic_abs:000000000000000a .LFE19
C:\Users\elias\AppData\Local\Temp\ccM4DAnB.s:6762   .debug_loc:000000000000145a .LLST109
C:\Users\elias\AppData\Local\Temp\ccM4DAnB.s:2302   .text.to_degree:0000000000000000 .LFB22
C:\Users\elias\AppData\Local\Temp\ccM4DAnB.s:2316   .text.to_degree:000000000000000e .LFE22
C:\Users\elias\AppData\Local\Temp\ccM4DAnB.s:6776   .debug_loc:000000000000147b .LLST112
C:\Users\elias\AppData\Local\Temp\ccM4DAnB.s:2323   .text.to_radians:0000000000000000 .LFB23
C:\Users\elias\AppData\Local\Temp\ccM4DAnB.s:2338   .text.to_radians:000000000000000e .LFE23
C:\Users\elias\AppData\Local\Temp\ccM4DAnB.s:6790   .debug_loc:000000000000149c .LLST113
C:\Users\elias\AppData\Local\Temp\ccM4DAnB.s:2288   .text.isOdd:0000000000000000 .LVL317
C:\Users\elias\AppData\Local\Temp\ccM4DAnB.s:2292   .text.isOdd:0000000000000002 .LVL318
C:\Users\elias\AppData\Local\Temp\ccM4DAnB.s:2268   .text.isEven:0000000000000000 .LVL314
C:\Users\elias\AppData\Local\Temp\ccM4DAnB.s:2272   .text.isEven:0000000000000004 .LVL315
C:\Users\elias\AppData\Local\Temp\ccM4DAnB.s:2275   .text.isEven:0000000000000006 .LVL316
C:\Users\elias\AppData\Local\Temp\ccM4DAnB.s:2212   .text.cordic_pow:0000000000000002 .LCFI9
C:\Users\elias\AppData\Local\Temp\ccM4DAnB.s:2232   .text.cordic_pow:000000000000001a .LCFI10
C:\Users\elias\AppData\Local\Temp\ccM4DAnB.s:2208   .text.cordic_pow:0000000000000000 .LVL308
C:\Users\elias\AppData\Local\Temp\ccM4DAnB.s:2228   .text.cordic_pow:0000000000000016 .LVL310
C:\Users\elias\AppData\Local\Temp\ccM4DAnB.s:1998   .text.cordic_exp:0000000000000000 .LVL277
C:\Users\elias\AppData\Local\Temp\ccM4DAnB.s:2007   .text.cordic_exp:000000000000000a .LVL278
C:\Users\elias\AppData\Local\Temp\ccM4DAnB.s:2059   .text.cordic_exp:000000000000003c .LVL285
C:\Users\elias\AppData\Local\Temp\ccM4DAnB.s:2071   .text.cordic_exp:0000000000000046 .LVL287
C:\Users\elias\AppData\Local\Temp\ccM4DAnB.s:2092   .text.cordic_exp:000000000000005a .LVL291
C:\Users\elias\AppData\Local\Temp\ccM4DAnB.s:2103   .text.cordic_exp:0000000000000064 .LVL292
C:\Users\elias\AppData\Local\Temp\ccM4DAnB.s:2119   .text.cordic_exp:0000000000000070 .LVL294
C:\Users\elias\AppData\Local\Temp\ccM4DAnB.s:2130   .text.cordic_exp:000000000000007c .LVL296
C:\Users\elias\AppData\Local\Temp\ccM4DAnB.s:2175   .text.cordic_exp:00000000000000a4 .LVL305
C:\Users\elias\AppData\Local\Temp\ccM4DAnB.s:2182   .text.cordic_exp:00000000000000aa .LVL306
C:\Users\elias\AppData\Local\Temp\ccM4DAnB.s:2116   .text.cordic_exp:000000000000006e .LVL293
C:\Users\elias\AppData\Local\Temp\ccM4DAnB.s:2017   .text.cordic_exp:0000000000000010 .LVL279
C:\Users\elias\AppData\Local\Temp\ccM4DAnB.s:2044   .text.cordic_exp:000000000000002a .LVL284
C:\Users\elias\AppData\Local\Temp\ccM4DAnB.s:2067   .text.cordic_exp:0000000000000044 .LVL286
C:\Users\elias\AppData\Local\Temp\ccM4DAnB.s:2076   .text.cordic_exp:0000000000000048 .LVL288
C:\Users\elias\AppData\Local\Temp\ccM4DAnB.s:2080   .text.cordic_exp:000000000000004c .LVL289
C:\Users\elias\AppData\Local\Temp\ccM4DAnB.s:2135   .text.cordic_exp:000000000000007e .LVL297
C:\Users\elias\AppData\Local\Temp\ccM4DAnB.s:2138   .text.cordic_exp:0000000000000082 .LVL298
C:\Users\elias\AppData\Local\Temp\ccM4DAnB.s:2153   .text.cordic_exp:0000000000000090 .LVL300
C:\Users\elias\AppData\Local\Temp\ccM4DAnB.s:2158   .text.cordic_exp:0000000000000094 .LVL301
C:\Users\elias\AppData\Local\Temp\ccM4DAnB.s:2164   .text.cordic_exp:0000000000000098 .LVL303
C:\Users\elias\AppData\Local\Temp\ccM4DAnB.s:2171   .text.cordic_exp:00000000000000a0 .LVL304
C:\Users\elias\AppData\Local\Temp\ccM4DAnB.s:2186   .text.cordic_exp:00000000000000ac .LVL307
GAS LISTING C:\Users\elias\AppData\Local\Temp\ccM4DAnB.s 			page 93


C:\Users\elias\AppData\Local\Temp\ccM4DAnB.s:2026   .text.cordic_exp:000000000000001a .LVL280
C:\Users\elias\AppData\Local\Temp\ccM4DAnB.s:2039   .text.cordic_exp:0000000000000024 .LVL283
C:\Users\elias\AppData\Local\Temp\ccM4DAnB.s:2127   .text.cordic_exp:000000000000007a .LVL295
C:\Users\elias\AppData\Local\Temp\ccM4DAnB.s:2146   .text.cordic_exp:0000000000000088 .LVL299
C:\Users\elias\AppData\Local\Temp\ccM4DAnB.s:2161   .text.cordic_exp:0000000000000096 .LVL302
C:\Users\elias\AppData\Local\Temp\ccM4DAnB.s:1954   .text.cordic_tanh:0000000000000002 .LCFI7
C:\Users\elias\AppData\Local\Temp\ccM4DAnB.s:1984   .text.cordic_tanh:000000000000002c .LCFI8
C:\Users\elias\AppData\Local\Temp\ccM4DAnB.s:1950   .text.cordic_tanh:0000000000000000 .LVL273
C:\Users\elias\AppData\Local\Temp\ccM4DAnB.s:1982   .text.cordic_tanh:000000000000002a .LVL276
C:\Users\elias\AppData\Local\Temp\ccM4DAnB.s:1803   .text.cordic_cosh:0000000000000000 .LVL251
C:\Users\elias\AppData\Local\Temp\ccM4DAnB.s:1835   .text.cordic_cosh:0000000000000026 .LVL253
C:\Users\elias\AppData\Local\Temp\ccM4DAnB.s:1826   .text.cordic_cosh:000000000000001a .LVL252
C:\Users\elias\AppData\Local\Temp\ccM4DAnB.s:1839   .text.cordic_cosh:0000000000000028 .LVL254
C:\Users\elias\AppData\Local\Temp\ccM4DAnB.s:1862   .text.cordic_cosh:0000000000000042 .LVL258
C:\Users\elias\AppData\Local\Temp\ccM4DAnB.s:1875   .text.cordic_cosh:0000000000000050 .LVL260
C:\Users\elias\AppData\Local\Temp\ccM4DAnB.s:1896   .text.cordic_cosh:0000000000000068 .LVL263
C:\Users\elias\AppData\Local\Temp\ccM4DAnB.s:1906   .text.cordic_cosh:0000000000000070 .LVL265
C:\Users\elias\AppData\Local\Temp\ccM4DAnB.s:1923   .text.cordic_cosh:000000000000007e .LVL269
C:\Users\elias\AppData\Local\Temp\ccM4DAnB.s:1931   .text.cordic_cosh:0000000000000084 .LVL271
C:\Users\elias\AppData\Local\Temp\ccM4DAnB.s:1891   .text.cordic_cosh:000000000000005e .LVL262
C:\Users\elias\AppData\Local\Temp\ccM4DAnB.s:1872   .text.cordic_cosh:000000000000004c .LVL259
C:\Users\elias\AppData\Local\Temp\ccM4DAnB.s:1879   .text.cordic_cosh:0000000000000054 .LVL261
C:\Users\elias\AppData\Local\Temp\ccM4DAnB.s:1921   .text.cordic_cosh:000000000000007c .LVL268
C:\Users\elias\AppData\Local\Temp\ccM4DAnB.s:1928   .text.cordic_cosh:0000000000000080 .LVL270
C:\Users\elias\AppData\Local\Temp\ccM4DAnB.s:1935   .text.cordic_cosh:0000000000000088 .LVL272
C:\Users\elias\AppData\Local\Temp\ccM4DAnB.s:1903   .text.cordic_cosh:000000000000006e .LVL264
C:\Users\elias\AppData\Local\Temp\ccM4DAnB.s:1914   .text.cordic_cosh:0000000000000076 .LVL267
C:\Users\elias\AppData\Local\Temp\ccM4DAnB.s:1656   .text.cordic_sinh:0000000000000000 .LVL229
C:\Users\elias\AppData\Local\Temp\ccM4DAnB.s:1688   .text.cordic_sinh:0000000000000026 .LVL231
C:\Users\elias\AppData\Local\Temp\ccM4DAnB.s:1679   .text.cordic_sinh:000000000000001a .LVL230
C:\Users\elias\AppData\Local\Temp\ccM4DAnB.s:1692   .text.cordic_sinh:0000000000000028 .LVL232
C:\Users\elias\AppData\Local\Temp\ccM4DAnB.s:1715   .text.cordic_sinh:0000000000000042 .LVL236
C:\Users\elias\AppData\Local\Temp\ccM4DAnB.s:1728   .text.cordic_sinh:0000000000000050 .LVL238
C:\Users\elias\AppData\Local\Temp\ccM4DAnB.s:1749   .text.cordic_sinh:0000000000000068 .LVL241
C:\Users\elias\AppData\Local\Temp\ccM4DAnB.s:1759   .text.cordic_sinh:0000000000000070 .LVL243
C:\Users\elias\AppData\Local\Temp\ccM4DAnB.s:1776   .text.cordic_sinh:000000000000007e .LVL247
C:\Users\elias\AppData\Local\Temp\ccM4DAnB.s:1784   .text.cordic_sinh:0000000000000084 .LVL249
C:\Users\elias\AppData\Local\Temp\ccM4DAnB.s:1744   .text.cordic_sinh:000000000000005e .LVL240
C:\Users\elias\AppData\Local\Temp\ccM4DAnB.s:1725   .text.cordic_sinh:000000000000004c .LVL237
C:\Users\elias\AppData\Local\Temp\ccM4DAnB.s:1732   .text.cordic_sinh:0000000000000054 .LVL239
C:\Users\elias\AppData\Local\Temp\ccM4DAnB.s:1774   .text.cordic_sinh:000000000000007c .LVL246
C:\Users\elias\AppData\Local\Temp\ccM4DAnB.s:1781   .text.cordic_sinh:0000000000000080 .LVL248
C:\Users\elias\AppData\Local\Temp\ccM4DAnB.s:1788   .text.cordic_sinh:0000000000000088 .LVL250
C:\Users\elias\AppData\Local\Temp\ccM4DAnB.s:1756   .text.cordic_sinh:000000000000006e .LVL242
C:\Users\elias\AppData\Local\Temp\ccM4DAnB.s:1767   .text.cordic_sinh:0000000000000076 .LVL245
C:\Users\elias\AppData\Local\Temp\ccM4DAnB.s:1558   .text.cordic_arcsinh:0000000000000002 .LCFI5
C:\Users\elias\AppData\Local\Temp\ccM4DAnB.s:1641   .text.cordic_arcsinh:0000000000000052 .LCFI6
C:\Users\elias\AppData\Local\Temp\ccM4DAnB.s:1550   .text.cordic_arcsinh:0000000000000000 .LVL216
C:\Users\elias\AppData\Local\Temp\ccM4DAnB.s:1574   .text.cordic_arcsinh:0000000000000010 .LVL217
C:\Users\elias\AppData\Local\Temp\ccM4DAnB.s:1581   .text.cordic_arcsinh:0000000000000014 .LVL219
C:\Users\elias\AppData\Local\Temp\ccM4DAnB.s:1589   .text.cordic_arcsinh:000000000000001a .LVL221
C:\Users\elias\AppData\Local\Temp\ccM4DAnB.s:1604   .text.cordic_arcsinh:000000000000002a .LVL223
C:\Users\elias\AppData\Local\Temp\ccM4DAnB.s:1620   .text.cordic_arcsinh:0000000000000036 .LVL226
C:\Users\elias\AppData\Local\Temp\ccM4DAnB.s:1625   .text.cordic_arcsinh:000000000000003c .LVL227
C:\Users\elias\AppData\Local\Temp\ccM4DAnB.s:1578   .text.cordic_arcsinh:0000000000000012 .LVL218
C:\Users\elias\AppData\Local\Temp\ccM4DAnB.s:1585   .text.cordic_arcsinh:0000000000000016 .LVL220
C:\Users\elias\AppData\Local\Temp\ccM4DAnB.s:1601   .text.cordic_arcsinh:0000000000000028 .LVL222
GAS LISTING C:\Users\elias\AppData\Local\Temp\ccM4DAnB.s 			page 94


C:\Users\elias\AppData\Local\Temp\ccM4DAnB.s:1608   .text.cordic_arcsinh:000000000000002c .LVL224
C:\Users\elias\AppData\Local\Temp\ccM4DAnB.s:1617   .text.cordic_arcsinh:0000000000000034 .LVL225
C:\Users\elias\AppData\Local\Temp\ccM4DAnB.s:1408   .text.cordic_arccosh:0000000000000002 .LCFI2
C:\Users\elias\AppData\Local\Temp\ccM4DAnB.s:1481   .text.cordic_arccosh:000000000000004e .LCFI3
C:\Users\elias\AppData\Local\Temp\ccM4DAnB.s:1487   .text.cordic_arccosh:0000000000000052 .LCFI4
C:\Users\elias\AppData\Local\Temp\ccM4DAnB.s:1400   .text.cordic_arccosh:0000000000000000 .LVL197
C:\Users\elias\AppData\Local\Temp\ccM4DAnB.s:1425   .text.cordic_arccosh:0000000000000010 .LVL198
C:\Users\elias\AppData\Local\Temp\ccM4DAnB.s:1459   .text.cordic_arccosh:0000000000000032 .LVL203
C:\Users\elias\AppData\Local\Temp\ccM4DAnB.s:1485   .text.cordic_arccosh:0000000000000052 .LVL206
C:\Users\elias\AppData\Local\Temp\ccM4DAnB.s:1440   .text.cordic_arccosh:0000000000000022 .LVL200
C:\Users\elias\AppData\Local\Temp\ccM4DAnB.s:1492   .text.cordic_arccosh:0000000000000054 .LVL207
C:\Users\elias\AppData\Local\Temp\ccM4DAnB.s:1513   .text.cordic_arccosh:000000000000006a .LVL210
C:\Users\elias\AppData\Local\Temp\ccM4DAnB.s:1520   .text.cordic_arccosh:0000000000000072 .LVL211
C:\Users\elias\AppData\Local\Temp\ccM4DAnB.s:1527   .text.cordic_arccosh:0000000000000076 .LVL213
C:\Users\elias\AppData\Local\Temp\ccM4DAnB.s:1531   .text.cordic_arccosh:0000000000000078 .LVL214
C:\Users\elias\AppData\Local\Temp\ccM4DAnB.s:1508   .text.cordic_arccosh:0000000000000060 .LVL209
C:\Users\elias\AppData\Local\Temp\ccM4DAnB.s:1437   .text.cordic_arccosh:0000000000000020 .LVL199
C:\Users\elias\AppData\Local\Temp\ccM4DAnB.s:1464   .text.cordic_arccosh:0000000000000038 .LVL204
C:\Users\elias\AppData\Local\Temp\ccM4DAnB.s:1456   .text.cordic_arccosh:0000000000000030 .LVL202
C:\Users\elias\AppData\Local\Temp\ccM4DAnB.s:1317   .text.cordic_ln:0000000000000002 .LCFI0
C:\Users\elias\AppData\Local\Temp\ccM4DAnB.s:1386   .text.cordic_ln:0000000000000050 .LCFI1
C:\Users\elias\AppData\Local\Temp\ccM4DAnB.s:1311   .text.cordic_ln:0000000000000000 .LVL188
C:\Users\elias\AppData\Local\Temp\ccM4DAnB.s:1334   .text.cordic_ln:000000000000001c .LVL189
C:\Users\elias\AppData\Local\Temp\ccM4DAnB.s:1349   .text.cordic_ln:000000000000002c .LVL193
C:\Users\elias\AppData\Local\Temp\ccM4DAnB.s:1340   .text.cordic_ln:0000000000000020 .LVL190
C:\Users\elias\AppData\Local\Temp\ccM4DAnB.s:1343   .text.cordic_ln:0000000000000024 .LVL191
C:\Users\elias\AppData\Local\Temp\ccM4DAnB.s:1358   .text.cordic_ln:0000000000000034 .LVL195
C:\Users\elias\AppData\Local\Temp\ccM4DAnB.s:1356   .text.cordic_ln:0000000000000030 .LVL194
C:\Users\elias\AppData\Local\Temp\ccM4DAnB.s:1165   .text.cordic_arctanh:0000000000000000 .LVL167
C:\Users\elias\AppData\Local\Temp\ccM4DAnB.s:1184   .text.cordic_arctanh:0000000000000014 .LVL168
C:\Users\elias\AppData\Local\Temp\ccM4DAnB.s:1202   .text.cordic_arctanh:0000000000000028 .LVL170
C:\Users\elias\AppData\Local\Temp\ccM4DAnB.s:1205   .text.cordic_arctanh:000000000000002c .LVL171
C:\Users\elias\AppData\Local\Temp\ccM4DAnB.s:1190   .text.cordic_arctanh:0000000000000018 .LVL169
C:\Users\elias\AppData\Local\Temp\ccM4DAnB.s:1225   .text.cordic_arctanh:0000000000000042 .LVL174
C:\Users\elias\AppData\Local\Temp\ccM4DAnB.s:1235   .text.cordic_arctanh:000000000000004c .LVL175
C:\Users\elias\AppData\Local\Temp\ccM4DAnB.s:1259   .text.cordic_arctanh:0000000000000066 .LVL179
C:\Users\elias\AppData\Local\Temp\ccM4DAnB.s:1272   .text.cordic_arctanh:0000000000000072 .LVL182
C:\Users\elias\AppData\Local\Temp\ccM4DAnB.s:1284   .text.cordic_arctanh:000000000000007c .LVL184
C:\Users\elias\AppData\Local\Temp\ccM4DAnB.s:1289   .text.cordic_arctanh:000000000000007e .LVL185
C:\Users\elias\AppData\Local\Temp\ccM4DAnB.s:1254   .text.cordic_arctanh:000000000000005c .LVL178
C:\Users\elias\AppData\Local\Temp\ccM4DAnB.s:1269   .text.cordic_arctanh:000000000000006e .LVL181
C:\Users\elias\AppData\Local\Temp\ccM4DAnB.s:1276   .text.cordic_arctanh:0000000000000076 .LVL183
C:\Users\elias\AppData\Local\Temp\ccM4DAnB.s:1266   .text.cordic_arctanh:000000000000006c .LVL180
C:\Users\elias\AppData\Local\Temp\ccM4DAnB.s:1056   .text.cordic_sqrt:0000000000000000 .LVL151
C:\Users\elias\AppData\Local\Temp\ccM4DAnB.s:1121   .text.cordic_sqrt:0000000000000042 .LVL161
C:\Users\elias\AppData\Local\Temp\ccM4DAnB.s:1123   .text.cordic_sqrt:0000000000000044 .LVL162
C:\Users\elias\AppData\Local\Temp\ccM4DAnB.s:1069   .text.cordic_sqrt:000000000000000c .LVL152
C:\Users\elias\AppData\Local\Temp\ccM4DAnB.s:1076   .text.cordic_sqrt:0000000000000018 .LVL153
C:\Users\elias\AppData\Local\Temp\ccM4DAnB.s:1081   .text.cordic_sqrt:000000000000001a .LVL154
C:\Users\elias\AppData\Local\Temp\ccM4DAnB.s:1089   .text.cordic_sqrt:0000000000000028 .LVL155
C:\Users\elias\AppData\Local\Temp\ccM4DAnB.s:1094   .text.cordic_sqrt:000000000000002a .LVL156
C:\Users\elias\AppData\Local\Temp\ccM4DAnB.s:1105   .text.cordic_sqrt:0000000000000036 .LVL158
C:\Users\elias\AppData\Local\Temp\ccM4DAnB.s:1127   .text.cordic_sqrt:0000000000000048 .LVL163
C:\Users\elias\AppData\Local\Temp\ccM4DAnB.s:1132   .text.cordic_sqrt:000000000000004a .LVL164
C:\Users\elias\AppData\Local\Temp\ccM4DAnB.s:1141   .text.cordic_sqrt:000000000000005a .LVL165
C:\Users\elias\AppData\Local\Temp\ccM4DAnB.s:1148   .text.cordic_sqrt:0000000000000062 .LVL166
C:\Users\elias\AppData\Local\Temp\ccM4DAnB.s:1116   .text.cordic_sqrt:0000000000000040 .LVL160
GAS LISTING C:\Users\elias\AppData\Local\Temp\ccM4DAnB.s 			page 95


C:\Users\elias\AppData\Local\Temp\ccM4DAnB.s:1103   .text.cordic_sqrt:0000000000000034 .LVL157
C:\Users\elias\AppData\Local\Temp\ccM4DAnB.s:925    .text.cordic_polar_rectangular:0000000000000000 .LVL136
C:\Users\elias\AppData\Local\Temp\ccM4DAnB.s:957    .text.cordic_polar_rectangular:0000000000000034 .LVL137
C:\Users\elias\AppData\Local\Temp\ccM4DAnB.s:1038   .text.cordic_polar_rectangular:000000000000008c .LVL150
C:\Users\elias\AppData\Local\Temp\ccM4DAnB.s:966    .text.cordic_polar_rectangular:0000000000000044 .LVL138
C:\Users\elias\AppData\Local\Temp\ccM4DAnB.s:973    .text.cordic_polar_rectangular:000000000000004a .LVL140
C:\Users\elias\AppData\Local\Temp\ccM4DAnB.s:987    .text.cordic_polar_rectangular:0000000000000056 .LVL143
C:\Users\elias\AppData\Local\Temp\ccM4DAnB.s:1005   .text.cordic_polar_rectangular:0000000000000068 .LVL146
C:\Users\elias\AppData\Local\Temp\ccM4DAnB.s:1002   .text.cordic_polar_rectangular:0000000000000066 .LVL145
C:\Users\elias\AppData\Local\Temp\ccM4DAnB.s:1009   .text.cordic_polar_rectangular:000000000000006c .LVL147
C:\Users\elias\AppData\Local\Temp\ccM4DAnB.s:1023   .text.cordic_polar_rectangular:000000000000007a .LVL149
C:\Users\elias\AppData\Local\Temp\ccM4DAnB.s:970    .text.cordic_polar_rectangular:0000000000000046 .LVL139
C:\Users\elias\AppData\Local\Temp\ccM4DAnB.s:981    .text.cordic_polar_rectangular:000000000000004e .LVL142
C:\Users\elias\AppData\Local\Temp\ccM4DAnB.s:999    .text.cordic_polar_rectangular:0000000000000064 .LVL144
C:\Users\elias\AppData\Local\Temp\ccM4DAnB.s:1018   .text.cordic_polar_rectangular:0000000000000074 .LVL148
C:\Users\elias\AppData\Local\Temp\ccM4DAnB.s:786    .text.cordic_rectangular_polar:0000000000000000 .LVL115
C:\Users\elias\AppData\Local\Temp\ccM4DAnB.s:878    .text.cordic_rectangular_polar:0000000000000062 .LVL131
C:\Users\elias\AppData\Local\Temp\ccM4DAnB.s:880    .text.cordic_rectangular_polar:0000000000000064 .LVL132
C:\Users\elias\AppData\Local\Temp\ccM4DAnB.s:811    .text.cordic_rectangular_polar:000000000000001e .LVL119
C:\Users\elias\AppData\Local\Temp\ccM4DAnB.s:818    .text.cordic_rectangular_polar:0000000000000022 .LVL121
C:\Users\elias\AppData\Local\Temp\ccM4DAnB.s:833    .text.cordic_rectangular_polar:0000000000000032 .LVL125
C:\Users\elias\AppData\Local\Temp\ccM4DAnB.s:850    .text.cordic_rectangular_polar:0000000000000048 .LVL127
C:\Users\elias\AppData\Local\Temp\ccM4DAnB.s:799    .text.cordic_rectangular_polar:000000000000000a .LVL118
C:\Users\elias\AppData\Local\Temp\ccM4DAnB.s:822    .text.cordic_rectangular_polar:0000000000000026 .LVL122
C:\Users\elias\AppData\Local\Temp\ccM4DAnB.s:826    .text.cordic_rectangular_polar:0000000000000028 .LVL123
C:\Users\elias\AppData\Local\Temp\ccM4DAnB.s:829    .text.cordic_rectangular_polar:000000000000002c .LVL124
C:\Users\elias\AppData\Local\Temp\ccM4DAnB.s:891    .text.cordic_rectangular_polar:0000000000000072 .LVL134
C:\Users\elias\AppData\Local\Temp\ccM4DAnB.s:790    .text.cordic_rectangular_polar:0000000000000002 .LVL116
C:\Users\elias\AppData\Local\Temp\ccM4DAnB.s:865    .text.cordic_rectangular_polar:0000000000000054 .LVL130
C:\Users\elias\AppData\Local\Temp\ccM4DAnB.s:885    .text.cordic_rectangular_polar:000000000000006a .LVL133
C:\Users\elias\AppData\Local\Temp\ccM4DAnB.s:815    .text.cordic_rectangular_polar:0000000000000020 .LVL120
C:\Users\elias\AppData\Local\Temp\ccM4DAnB.s:845    .text.cordic_rectangular_polar:0000000000000040 .LVL126
C:\Users\elias\AppData\Local\Temp\ccM4DAnB.s:854    .text.cordic_rectangular_polar:000000000000004a .LVL128
C:\Users\elias\AppData\Local\Temp\ccM4DAnB.s:863    .text.cordic_rectangular_polar:0000000000000052 .LVL129
C:\Users\elias\AppData\Local\Temp\ccM4DAnB.s:908    .text.cordic_rectangular_polar:0000000000000078 .LVL135
C:\Users\elias\AppData\Local\Temp\ccM4DAnB.s:654    .text.cordic_tan:0000000000000000 .LVL94
C:\Users\elias\AppData\Local\Temp\ccM4DAnB.s:661    .text.cordic_tan:000000000000000a .LVL95
C:\Users\elias\AppData\Local\Temp\ccM4DAnB.s:747    .text.cordic_tan:0000000000000074 .LVL109
C:\Users\elias\AppData\Local\Temp\ccM4DAnB.s:767    .text.cordic_tan:000000000000008c .LVL113
C:\Users\elias\AppData\Local\Temp\ccM4DAnB.s:769    .text.cordic_tan:000000000000008e .LVL114
C:\Users\elias\AppData\Local\Temp\ccM4DAnB.s:692    .text.cordic_tan:000000000000003c .LVL98
C:\Users\elias\AppData\Local\Temp\ccM4DAnB.s:764    .text.cordic_tan:0000000000000088 .LVL112
C:\Users\elias\AppData\Local\Temp\ccM4DAnB.s:671    .text.cordic_tan:0000000000000016 .LVL96
C:\Users\elias\AppData\Local\Temp\ccM4DAnB.s:679    .text.cordic_tan:0000000000000022 .LVL97
C:\Users\elias\AppData\Local\Temp\ccM4DAnB.s:703    .text.cordic_tan:0000000000000044 .LVL101
C:\Users\elias\AppData\Local\Temp\ccM4DAnB.s:707    .text.cordic_tan:0000000000000046 .LVL102
C:\Users\elias\AppData\Local\Temp\ccM4DAnB.s:710    .text.cordic_tan:000000000000004a .LVL103
C:\Users\elias\AppData\Local\Temp\ccM4DAnB.s:699    .text.cordic_tan:0000000000000042 .LVL100
C:\Users\elias\AppData\Local\Temp\ccM4DAnB.s:714    .text.cordic_tan:0000000000000050 .LVL104
C:\Users\elias\AppData\Local\Temp\ccM4DAnB.s:731    .text.cordic_tan:0000000000000064 .LVL106
C:\Users\elias\AppData\Local\Temp\ccM4DAnB.s:696    .text.cordic_tan:000000000000003e .LVL99
C:\Users\elias\AppData\Local\Temp\ccM4DAnB.s:726    .text.cordic_tan:000000000000005e .LVL105
C:\Users\elias\AppData\Local\Temp\ccM4DAnB.s:735    .text.cordic_tan:0000000000000068 .LVL107
C:\Users\elias\AppData\Local\Temp\ccM4DAnB.s:744    .text.cordic_tan:000000000000006e .LVL108
C:\Users\elias\AppData\Local\Temp\ccM4DAnB.s:551    .text.cordic_acos:0000000000000000 .LVL80
C:\Users\elias\AppData\Local\Temp\ccM4DAnB.s:641    .text.cordic_acos:000000000000005e .LVL93
C:\Users\elias\AppData\Local\Temp\ccM4DAnB.s:579    .text.cordic_acos:0000000000000020 .LVL81
GAS LISTING C:\Users\elias\AppData\Local\Temp\ccM4DAnB.s 			page 96


C:\Users\elias\AppData\Local\Temp\ccM4DAnB.s:615    .text.cordic_acos:0000000000000046 .LVL88
C:\Users\elias\AppData\Local\Temp\ccM4DAnB.s:622    .text.cordic_acos:000000000000004c .LVL90
C:\Users\elias\AppData\Local\Temp\ccM4DAnB.s:636    .text.cordic_acos:000000000000005c .LVL92
C:\Users\elias\AppData\Local\Temp\ccM4DAnB.s:586    .text.cordic_acos:0000000000000026 .LVL83
C:\Users\elias\AppData\Local\Temp\ccM4DAnB.s:600    .text.cordic_acos:0000000000000034 .LVL86
C:\Users\elias\AppData\Local\Temp\ccM4DAnB.s:618    .text.cordic_acos:0000000000000048 .LVL89
C:\Users\elias\AppData\Local\Temp\ccM4DAnB.s:583    .text.cordic_acos:0000000000000022 .LVL82
C:\Users\elias\AppData\Local\Temp\ccM4DAnB.s:594    .text.cordic_acos:000000000000002a .LVL85
C:\Users\elias\AppData\Local\Temp\ccM4DAnB.s:612    .text.cordic_acos:0000000000000042 .LVL87
C:\Users\elias\AppData\Local\Temp\ccM4DAnB.s:631    .text.cordic_acos:0000000000000052 .LVL91
C:\Users\elias\AppData\Local\Temp\ccM4DAnB.s:434    .text.cordic_asin:0000000000000000 .LVL63
C:\Users\elias\AppData\Local\Temp\ccM4DAnB.s:513    .text.cordic_asin:0000000000000054 .LVL75
C:\Users\elias\AppData\Local\Temp\ccM4DAnB.s:459    .text.cordic_asin:000000000000001c .LVL64
C:\Users\elias\AppData\Local\Temp\ccM4DAnB.s:495    .text.cordic_asin:0000000000000042 .LVL71
C:\Users\elias\AppData\Local\Temp\ccM4DAnB.s:502    .text.cordic_asin:0000000000000048 .LVL73
C:\Users\elias\AppData\Local\Temp\ccM4DAnB.s:515    .text.cordic_asin:0000000000000058 .LVL76
C:\Users\elias\AppData\Local\Temp\ccM4DAnB.s:521    .text.cordic_asin:0000000000000062 .LVL77
C:\Users\elias\AppData\Local\Temp\ccM4DAnB.s:530    .text.cordic_asin:0000000000000068 .LVL78
C:\Users\elias\AppData\Local\Temp\ccM4DAnB.s:533    .text.cordic_asin:000000000000006a .LVL79
C:\Users\elias\AppData\Local\Temp\ccM4DAnB.s:466    .text.cordic_asin:0000000000000022 .LVL66
C:\Users\elias\AppData\Local\Temp\ccM4DAnB.s:480    .text.cordic_asin:0000000000000030 .LVL69
C:\Users\elias\AppData\Local\Temp\ccM4DAnB.s:498    .text.cordic_asin:0000000000000044 .LVL72
C:\Users\elias\AppData\Local\Temp\ccM4DAnB.s:463    .text.cordic_asin:000000000000001e .LVL65
C:\Users\elias\AppData\Local\Temp\ccM4DAnB.s:474    .text.cordic_asin:0000000000000026 .LVL68
C:\Users\elias\AppData\Local\Temp\ccM4DAnB.s:492    .text.cordic_asin:000000000000003e .LVL70
C:\Users\elias\AppData\Local\Temp\ccM4DAnB.s:510    .text.cordic_asin:000000000000004e .LVL74
C:\Users\elias\AppData\Local\Temp\ccM4DAnB.s:311    .text.cordic_sin:0000000000000000 .LVL45
C:\Users\elias\AppData\Local\Temp\ccM4DAnB.s:318    .text.cordic_sin:000000000000000a .LVL46
C:\Users\elias\AppData\Local\Temp\ccM4DAnB.s:404    .text.cordic_sin:0000000000000070 .LVL60
C:\Users\elias\AppData\Local\Temp\ccM4DAnB.s:417    .text.cordic_sin:0000000000000080 .LVL62
C:\Users\elias\AppData\Local\Temp\ccM4DAnB.s:349    .text.cordic_sin:000000000000003c .LVL49
C:\Users\elias\AppData\Local\Temp\ccM4DAnB.s:328    .text.cordic_sin:0000000000000016 .LVL47
C:\Users\elias\AppData\Local\Temp\ccM4DAnB.s:336    .text.cordic_sin:0000000000000022 .LVL48
C:\Users\elias\AppData\Local\Temp\ccM4DAnB.s:360    .text.cordic_sin:0000000000000044 .LVL52
C:\Users\elias\AppData\Local\Temp\ccM4DAnB.s:364    .text.cordic_sin:0000000000000046 .LVL53
C:\Users\elias\AppData\Local\Temp\ccM4DAnB.s:367    .text.cordic_sin:000000000000004a .LVL54
C:\Users\elias\AppData\Local\Temp\ccM4DAnB.s:356    .text.cordic_sin:0000000000000042 .LVL51
C:\Users\elias\AppData\Local\Temp\ccM4DAnB.s:371    .text.cordic_sin:000000000000004e .LVL55
C:\Users\elias\AppData\Local\Temp\ccM4DAnB.s:388    .text.cordic_sin:0000000000000060 .LVL57
C:\Users\elias\AppData\Local\Temp\ccM4DAnB.s:353    .text.cordic_sin:000000000000003e .LVL50
C:\Users\elias\AppData\Local\Temp\ccM4DAnB.s:383    .text.cordic_sin:000000000000005c .LVL56
C:\Users\elias\AppData\Local\Temp\ccM4DAnB.s:392    .text.cordic_sin:0000000000000064 .LVL58
C:\Users\elias\AppData\Local\Temp\ccM4DAnB.s:401    .text.cordic_sin:000000000000006a .LVL59
C:\Users\elias\AppData\Local\Temp\ccM4DAnB.s:188    .text.cordic_cos:0000000000000000 .LVL27
C:\Users\elias\AppData\Local\Temp\ccM4DAnB.s:195    .text.cordic_cos:000000000000000a .LVL28
C:\Users\elias\AppData\Local\Temp\ccM4DAnB.s:281    .text.cordic_cos:0000000000000070 .LVL42
C:\Users\elias\AppData\Local\Temp\ccM4DAnB.s:294    .text.cordic_cos:0000000000000080 .LVL44
C:\Users\elias\AppData\Local\Temp\ccM4DAnB.s:226    .text.cordic_cos:000000000000003c .LVL31
C:\Users\elias\AppData\Local\Temp\ccM4DAnB.s:205    .text.cordic_cos:0000000000000016 .LVL29
C:\Users\elias\AppData\Local\Temp\ccM4DAnB.s:213    .text.cordic_cos:0000000000000022 .LVL30
C:\Users\elias\AppData\Local\Temp\ccM4DAnB.s:237    .text.cordic_cos:0000000000000044 .LVL34
C:\Users\elias\AppData\Local\Temp\ccM4DAnB.s:241    .text.cordic_cos:0000000000000046 .LVL35
C:\Users\elias\AppData\Local\Temp\ccM4DAnB.s:244    .text.cordic_cos:000000000000004a .LVL36
C:\Users\elias\AppData\Local\Temp\ccM4DAnB.s:233    .text.cordic_cos:0000000000000042 .LVL33
C:\Users\elias\AppData\Local\Temp\ccM4DAnB.s:248    .text.cordic_cos:000000000000004e .LVL37
C:\Users\elias\AppData\Local\Temp\ccM4DAnB.s:265    .text.cordic_cos:0000000000000060 .LVL39
C:\Users\elias\AppData\Local\Temp\ccM4DAnB.s:230    .text.cordic_cos:000000000000003e .LVL32
GAS LISTING C:\Users\elias\AppData\Local\Temp\ccM4DAnB.s 			page 97


C:\Users\elias\AppData\Local\Temp\ccM4DAnB.s:260    .text.cordic_cos:000000000000005c .LVL38
C:\Users\elias\AppData\Local\Temp\ccM4DAnB.s:269    .text.cordic_cos:0000000000000064 .LVL40
C:\Users\elias\AppData\Local\Temp\ccM4DAnB.s:278    .text.cordic_cos:000000000000006a .LVL41
C:\Users\elias\AppData\Local\Temp\ccM4DAnB.s:107    .text.cordic_hypotenuse:0000000000000000 .LVL13
C:\Users\elias\AppData\Local\Temp\ccM4DAnB.s:114    .text.cordic_hypotenuse:000000000000000a .LVL14
C:\Users\elias\AppData\Local\Temp\ccM4DAnB.s:128    .text.cordic_hypotenuse:0000000000000016 .LVL17
C:\Users\elias\AppData\Local\Temp\ccM4DAnB.s:169    .text.cordic_hypotenuse:000000000000003a .LVL25
C:\Users\elias\AppData\Local\Temp\ccM4DAnB.s:116    .text.cordic_hypotenuse:000000000000000c .LVL15
C:\Users\elias\AppData\Local\Temp\ccM4DAnB.s:119    .text.cordic_hypotenuse:0000000000000010 .LVL16
C:\Users\elias\AppData\Local\Temp\ccM4DAnB.s:171    .text.cordic_hypotenuse:000000000000003c .LVL26
C:\Users\elias\AppData\Local\Temp\ccM4DAnB.s:135    .text.cordic_hypotenuse:000000000000001a .LVL19
C:\Users\elias\AppData\Local\Temp\ccM4DAnB.s:142    .text.cordic_hypotenuse:0000000000000020 .LVL21
C:\Users\elias\AppData\Local\Temp\ccM4DAnB.s:157    .text.cordic_hypotenuse:0000000000000030 .LVL23
C:\Users\elias\AppData\Local\Temp\ccM4DAnB.s:132    .text.cordic_hypotenuse:0000000000000018 .LVL18
C:\Users\elias\AppData\Local\Temp\ccM4DAnB.s:139    .text.cordic_hypotenuse:000000000000001c .LVL20
C:\Users\elias\AppData\Local\Temp\ccM4DAnB.s:154    .text.cordic_hypotenuse:000000000000002e .LVL22
C:\Users\elias\AppData\Local\Temp\ccM4DAnB.s:161    .text.cordic_hypotenuse:0000000000000032 .LVL24
C:\Users\elias\AppData\Local\Temp\ccM4DAnB.s:18     .text.cordic_atan:0000000000000000 .LVL0
C:\Users\elias\AppData\Local\Temp\ccM4DAnB.s:32     .text.cordic_atan:000000000000000e .LVL2
C:\Users\elias\AppData\Local\Temp\ccM4DAnB.s:28     .text.cordic_atan:000000000000000a .LVL1
C:\Users\elias\AppData\Local\Temp\ccM4DAnB.s:45     .text.cordic_atan:0000000000000024 .LVL3
C:\Users\elias\AppData\Local\Temp\ccM4DAnB.s:81     .text.cordic_atan:0000000000000046 .LVL10
C:\Users\elias\AppData\Local\Temp\ccM4DAnB.s:88     .text.cordic_atan:000000000000004c .LVL12
C:\Users\elias\AppData\Local\Temp\ccM4DAnB.s:52     .text.cordic_atan:0000000000000028 .LVL5
C:\Users\elias\AppData\Local\Temp\ccM4DAnB.s:66     .text.cordic_atan:0000000000000036 .LVL8
C:\Users\elias\AppData\Local\Temp\ccM4DAnB.s:84     .text.cordic_atan:000000000000004a .LVL11
C:\Users\elias\AppData\Local\Temp\ccM4DAnB.s:49     .text.cordic_atan:0000000000000026 .LVL4
C:\Users\elias\AppData\Local\Temp\ccM4DAnB.s:60     .text.cordic_atan:000000000000002e .LVL7
C:\Users\elias\AppData\Local\Temp\ccM4DAnB.s:78     .text.cordic_atan:0000000000000044 .LVL9
C:\Users\elias\AppData\Local\Temp\ccM4DAnB.s:2249   .text.cordic_abs:0000000000000000 .LVL312
C:\Users\elias\AppData\Local\Temp\ccM4DAnB.s:2253   .text.cordic_abs:0000000000000006 .LVL313
C:\Users\elias\AppData\Local\Temp\ccM4DAnB.s:2305   .text.to_degree:0000000000000000 .LVL319
C:\Users\elias\AppData\Local\Temp\ccM4DAnB.s:2311   .text.to_degree:000000000000000a .LVL320
C:\Users\elias\AppData\Local\Temp\ccM4DAnB.s:2326   .text.to_radians:0000000000000000 .LVL321
C:\Users\elias\AppData\Local\Temp\ccM4DAnB.s:2333   .text.to_radians:0000000000000008 .LVL322
C:\Users\elias\AppData\Local\Temp\ccM4DAnB.s:2387   .debug_info:0000000000000000 .Ldebug_info0
C:\Users\elias\AppData\Local\Temp\ccM4DAnB.s:437    .text.cordic_asin:0000000000000000 .LBB30
C:\Users\elias\AppData\Local\Temp\ccM4DAnB.s:440    .text.cordic_asin:0000000000000004 .LBE30
C:\Users\elias\AppData\Local\Temp\ccM4DAnB.s:445    .text.cordic_asin:000000000000000e .LBB31
C:\Users\elias\AppData\Local\Temp\ccM4DAnB.s:448    .text.cordic_asin:0000000000000010 .LBE31
C:\Users\elias\AppData\Local\Temp\ccM4DAnB.s:455    .text.cordic_asin:0000000000000018 .LBB32
C:\Users\elias\AppData\Local\Temp\ccM4DAnB.s:507    .text.cordic_asin:000000000000004c .LBE32
C:\Users\elias\AppData\Local\Temp\ccM4DAnB.s:554    .text.cordic_acos:0000000000000000 .LBB33
C:\Users\elias\AppData\Local\Temp\ccM4DAnB.s:557    .text.cordic_acos:0000000000000004 .LBE33
C:\Users\elias\AppData\Local\Temp\ccM4DAnB.s:565    .text.cordic_acos:0000000000000010 .LBB34
C:\Users\elias\AppData\Local\Temp\ccM4DAnB.s:568    .text.cordic_acos:0000000000000012 .LBE34
C:\Users\elias\AppData\Local\Temp\ccM4DAnB.s:575    .text.cordic_acos:000000000000001c .LBB35
C:\Users\elias\AppData\Local\Temp\ccM4DAnB.s:627    .text.cordic_acos:0000000000000050 .LBE35
C:\Users\elias\AppData\Local\Temp\ccM4DAnB.s:901    .text.cordic_rectangular_polar:0000000000000072 .LBE38
C:\Users\elias\AppData\Local\Temp\ccM4DAnB.s:904    .text.cordic_rectangular_polar:0000000000000074 .LBB41
C:\Users\elias\AppData\Local\Temp\ccM4DAnB.s:910    .text.cordic_rectangular_polar:0000000000000078 .LBE41
C:\Users\elias\AppData\Local\Temp\ccM4DAnB.s:1168   .text.cordic_arctanh:0000000000000000 .LBB44
C:\Users\elias\AppData\Local\Temp\ccM4DAnB.s:1170   .text.cordic_arctanh:0000000000000000 .LBE44
C:\Users\elias\AppData\Local\Temp\ccM4DAnB.s:1173   .text.cordic_arctanh:0000000000000002 .LBB45
C:\Users\elias\AppData\Local\Temp\ccM4DAnB.s:1177   .text.cordic_arctanh:0000000000000008 .LBE45
C:\Users\elias\AppData\Local\Temp\ccM4DAnB.s:1187   .text.cordic_arctanh:0000000000000016 .LBB46
C:\Users\elias\AppData\Local\Temp\ccM4DAnB.s:1281   .text.cordic_arctanh:000000000000007a .LBE46
GAS LISTING C:\Users\elias\AppData\Local\Temp\ccM4DAnB.s 			page 98


C:\Users\elias\AppData\Local\Temp\ccM4DAnB.s:1286   .text.cordic_arctanh:000000000000007c .LBB47
C:\Users\elias\AppData\Local\Temp\ccM4DAnB.s:1299   .text.cordic_arctanh:0000000000000086 .LBE47
C:\Users\elias\AppData\Local\Temp\ccM4DAnB.s:1371   .text.cordic_ln:0000000000000044 .LBE48
C:\Users\elias\AppData\Local\Temp\ccM4DAnB.s:1375   .text.cordic_ln:0000000000000046 .LBB51
C:\Users\elias\AppData\Local\Temp\ccM4DAnB.s:1380   .text.cordic_ln:000000000000004a .LBE51
C:\Users\elias\AppData\Local\Temp\ccM4DAnB.s:1403   .text.cordic_arccosh:0000000000000000 .LBB52
C:\Users\elias\AppData\Local\Temp\ccM4DAnB.s:1405   .text.cordic_arccosh:0000000000000000 .LBE52
C:\Users\elias\AppData\Local\Temp\ccM4DAnB.s:1414   .text.cordic_arccosh:0000000000000006 .LBB53
C:\Users\elias\AppData\Local\Temp\ccM4DAnB.s:1417   .text.cordic_arccosh:0000000000000008 .LBE53
C:\Users\elias\AppData\Local\Temp\ccM4DAnB.s:1422   .text.cordic_arccosh:000000000000000e .LBB54
C:\Users\elias\AppData\Local\Temp\ccM4DAnB.s:1452   .text.cordic_arccosh:000000000000002c .LBE54
C:\Users\elias\AppData\Local\Temp\ccM4DAnB.s:1489   .text.cordic_arccosh:0000000000000052 .LBB57
C:\Users\elias\AppData\Local\Temp\ccM4DAnB.s:1538   .text.cordic_arccosh:000000000000007c .LBE57
C:\Users\elias\AppData\Local\Temp\ccM4DAnB.s:1553   .text.cordic_arcsinh:0000000000000000 .LBB58
C:\Users\elias\AppData\Local\Temp\ccM4DAnB.s:1555   .text.cordic_arcsinh:0000000000000000 .LBE58
C:\Users\elias\AppData\Local\Temp\ccM4DAnB.s:1564   .text.cordic_arcsinh:0000000000000006 .LBB59
C:\Users\elias\AppData\Local\Temp\ccM4DAnB.s:1567   .text.cordic_arcsinh:0000000000000008 .LBE59
C:\Users\elias\AppData\Local\Temp\ccM4DAnB.s:1570   .text.cordic_arcsinh:000000000000000c .LBB60
C:\Users\elias\AppData\Local\Temp\ccM4DAnB.s:1613   .text.cordic_arcsinh:0000000000000030 .LBE60
C:\Users\elias\AppData\Local\Temp\ccM4DAnB.s:1659   .text.cordic_sinh:0000000000000000 .LBB63
C:\Users\elias\AppData\Local\Temp\ccM4DAnB.s:1664   .text.cordic_sinh:0000000000000006 .LBE63
C:\Users\elias\AppData\Local\Temp\ccM4DAnB.s:1676   .text.cordic_sinh:0000000000000018 .LBB64
C:\Users\elias\AppData\Local\Temp\ccM4DAnB.s:1771   .text.cordic_sinh:000000000000007a .LBE64
C:\Users\elias\AppData\Local\Temp\ccM4DAnB.s:1778   .text.cordic_sinh:000000000000007e .LBB65
C:\Users\elias\AppData\Local\Temp\ccM4DAnB.s:1791   .text.cordic_sinh:000000000000008a .LBE65
C:\Users\elias\AppData\Local\Temp\ccM4DAnB.s:1806   .text.cordic_cosh:0000000000000000 .LBB66
C:\Users\elias\AppData\Local\Temp\ccM4DAnB.s:1811   .text.cordic_cosh:0000000000000006 .LBE66
C:\Users\elias\AppData\Local\Temp\ccM4DAnB.s:1823   .text.cordic_cosh:0000000000000018 .LBB67
C:\Users\elias\AppData\Local\Temp\ccM4DAnB.s:1918   .text.cordic_cosh:000000000000007a .LBE67
C:\Users\elias\AppData\Local\Temp\ccM4DAnB.s:1925   .text.cordic_cosh:000000000000007e .LBB68
C:\Users\elias\AppData\Local\Temp\ccM4DAnB.s:1938   .text.cordic_cosh:000000000000008a .LBE68
C:\Users\elias\AppData\Local\Temp\ccM4DAnB.s:2009   .text.cordic_exp:000000000000000a .LBE69
C:\Users\elias\AppData\Local\Temp\ccM4DAnB.s:2012   .text.cordic_exp:000000000000000c .LBB72
C:\Users\elias\AppData\Local\Temp\ccM4DAnB.s:2019   .text.cordic_exp:0000000000000010 .LBE72
C:\Users\elias\AppData\Local\Temp\ccM4DAnB.s:2045   .text.cordic_exp:000000000000002a .LBB73
C:\Users\elias\AppData\Local\Temp\ccM4DAnB.s:2048   .text.cordic_exp:000000000000002c .LBE73
C:\Users\elias\AppData\Local\Temp\ccM4DAnB.s:2056   .text.cordic_exp:000000000000003a .LBB74
C:\Users\elias\AppData\Local\Temp\ccM4DAnB.s:2140   .text.cordic_exp:0000000000000082 .LBE74
C:\Users\elias\AppData\Local\Temp\ccM4DAnB.s:2177   .text.cordic_exp:00000000000000a4 .LBB77
C:\Users\elias\AppData\Local\Temp\ccM4DAnB.s:2188   .text.cordic_exp:00000000000000ac .LBE77
C:\Users\elias\AppData\Local\Temp\ccM4DAnB.s:2141   .text.cordic_exp:0000000000000082 .LBB75
C:\Users\elias\AppData\Local\Temp\ccM4DAnB.s:2147   .text.cordic_exp:0000000000000088 .LBE75
C:\Users\elias\AppData\Local\Temp\ccM4DAnB.s:2150   .text.cordic_exp:000000000000008c .LBB76
C:\Users\elias\AppData\Local\Temp\ccM4DAnB.s:2167   .text.cordic_exp:000000000000009c .LBE76

NO UNDEFINED SYMBOLS
