GAS LISTING C:\Users\elias\AppData\Local\Temp\ccw7dSSe.s 			page 1


   1              		.file	"main.c"
   2              		.option nopic
   3              		.attribute arch, "rv32i2p0_m2p0_a2p0_c2p0"
   4              		.attribute unaligned_access, 0
   5              		.attribute stack_align, 16
   6              		.text
   7              	.Ltext0:
   8              		.cfi_sections	.debug_frame
   9              		.globl	__floatundidf
  10              		.globl	__floatunsidf
  11              		.globl	__divdf3
  12              		.globl	__muldf3
  13              		.globl	__ltdf2
  14              		.section	.text.delay_01us,"ax",@progbits
  15              		.align	1
  16              		.globl	delay_01us
  18              	delay_01us:
  19              	.LFB3:
  20              		.file 1 "main.c"
   1:main.c        **** #include "gd32vf103.h"
   2:main.c        **** #include "lcd.h"
   3:main.c        **** #include "adc.h"
   4:main.c        **** #include "stdint.h"
   5:main.c        **** #include "fft.h"
   6:main.c        **** #include "cordic-math.h"
   7:main.c        **** 
   8:main.c        **** #define WavePoints 128 
   9:main.c        **** //#define FrequencyOne 32000 
  10:main.c        **** //#define FrequencyTwo 6400000
  11:main.c        **** static const uint32_t Alpha = (2*3.14*256);
  12:main.c        **** 
  13:main.c        **** void delay_01us(uint32_t count);
  14:main.c        **** 
  15:main.c        **** int main(void){
  16:main.c        ****   
  17:main.c        ****   ADC3powerUpInit(1);                       
  18:main.c        ****   Lcd_SetType(LCD_INVERTED);                
  19:main.c        ****   Lcd_Init();                               
  20:main.c        ****   LCD_Clear(BLACK);                         
  21:main.c        ****   
  22:main.c        ****   int adcValues = 0;
  23:main.c        ****   Complex waveSample[WavePoints];
  24:main.c        ****   
  25:main.c        ****   for (int i = 0; i < WavePoints; i++){
  26:main.c        ****     waveSample[i].real=0;
  27:main.c        ****     waveSample[i].imag=0;
  28:main.c        ****   }
  29:main.c        **** 
  30:main.c        ****   /* 
  31:main.c        ****   cordic_sin(to_degree(Alpha * FrequencyOne * adcValues / (WavePoints))) + 
  32:main.c        ****   cordic_sin(to_degree(Alpha * FrequencyTwo * adcValues / (WavePoints))); 
  33:main.c        ****   */
  34:main.c        **** 
  35:main.c        ****   while(1)
  36:main.c        ****   {
  37:main.c        ****     if(adc_flag_get(ADC0,ADC_FLAG_EOC)==SET){        
  38:main.c        ****         waveSample[adcValues].real = ((((adc_regular_data_read(ADC0))/5) <<8)/1241);
GAS LISTING C:\Users\elias\AppData\Local\Temp\ccw7dSSe.s 			page 2


  39:main.c        ****         waveSample[adcValues].imag = 0;
  40:main.c        ****         adcValues++;
  41:main.c        ****         delay_01us(15);
  42:main.c        ****       if (adcValues >= WavePoints){
  43:main.c        ****         fft(waveSample, WavePoints);
  44:main.c        ****         for (int i = 0; i < WavePoints/2; i++){
  45:main.c        ****           LCD_DrawLine(i*2, 70, i*2, (70-(cordic_hypotenuse(((waveSample[i].imag * 2) / WavePoints)
  46:main.c        ****           LCD_Wait_On_Queue();
  47:main.c        ****         }
  48:main.c        ****         LCD_Clear(BLACK);
  49:main.c        ****         adcValues = 0;
  50:main.c        ****       }
  51:main.c        ****       adc_software_trigger_enable(ADC0,ADC_REGULAR_CHANNEL);
  52:main.c        ****     }
  53:main.c        ****   }
  54:main.c        **** }
  55:main.c        **** 
  56:main.c        **** /***************DELAY FUNCTION*******************************************/
  57:main.c        **** void delay_01us(uint32_t count)
  58:main.c        **** {
  21              		.loc 1 58 1
  22              		.cfi_startproc
  23              	.LVL0:
  59:main.c        **** 	uint64_t start_mtime, delta_mtime;
  24              		.loc 1 59 2
  60:main.c        **** 
  61:main.c        **** 	// Don't start measuruing until we see an mtime tick
  62:main.c        **** 	uint64_t tmp = get_timer_value();
  25              		.loc 1 62 2
  58:main.c        **** 	uint64_t start_mtime, delta_mtime;
  26              		.loc 1 58 1 is_stmt 0
  27 0000 7971     		addi	sp,sp,-48
  28              	.LCFI0:
  29              		.cfi_def_cfa_offset 48
  30 0002 4AD0     		sw	s2,32(sp)
  31 0004 4ECE     		sw	s3,28(sp)
  32 0006 5EC6     		sw	s7,12(sp)
  33 0008 06D6     		sw	ra,44(sp)
  34 000a 22D4     		sw	s0,40(sp)
  35 000c 26D2     		sw	s1,36(sp)
  36 000e 52CC     		sw	s4,24(sp)
  37 0010 56CA     		sw	s5,20(sp)
  38 0012 5AC8     		sw	s6,16(sp)
  39 0014 62C4     		sw	s8,8(sp)
  40 0016 66C2     		sw	s9,4(sp)
  41              		.cfi_offset 18, -16
  42              		.cfi_offset 19, -20
  43              		.cfi_offset 23, -36
  44              		.cfi_offset 1, -4
  45              		.cfi_offset 8, -8
  46              		.cfi_offset 9, -12
  47              		.cfi_offset 20, -24
  48              		.cfi_offset 21, -28
  49              		.cfi_offset 22, -32
  50              		.cfi_offset 24, -40
  51              		.cfi_offset 25, -44
  58:main.c        **** 	uint64_t start_mtime, delta_mtime;
GAS LISTING C:\Users\elias\AppData\Local\Temp\ccw7dSSe.s 			page 3


  52              		.loc 1 58 1
  53 0018 AA8B     		mv	s7,a0
  54              		.loc 1 62 17
  55 001a 97000000 		call	get_timer_value
  55      E7800000 
  56              	.LVL1:
  57 0022 2A89     		mv	s2,a0
  58 0024 AE89     		mv	s3,a1
  59              	.LVL2:
  60              	.L2:
  63:main.c        **** 	do{
  61              		.loc 1 63 2 is_stmt 1 discriminator 1
  64:main.c        **** 	    start_mtime = get_timer_value();
  62              		.loc 1 64 6 discriminator 1
  63              		.loc 1 64 20 is_stmt 0 discriminator 1
  64 0026 97000000 		call	get_timer_value
  64      E7800000 
  65              	.LVL3:
  66 002e 2A84     		mv	s0,a0
  67 0030 AE84     		mv	s1,a1
  68              	.LVL4:
  65:main.c        **** 	}while (start_mtime == tmp);
  69              		.loc 1 65 2 discriminator 1
  70 0032 6314A900 		bne	s2,a0,.L3
  71 0036 E388B9FE 		beq	s3,a1,.L2
  72              	.L3:
  73 003a B7070000 		lui	a5,%hi(.LC0)
  66:main.c        **** 
  67:main.c        **** 	do{
  68:main.c        **** 	    delta_mtime = get_timer_value() - start_mtime;
  69:main.c        **** 	}while(delta_mtime <(SystemCoreClock/4000000.0 *count ));
  74              		.loc 1 69 38 discriminator 1
  75 003e 03A90700 		lw	s2,%lo(.LC0)(a5)
  76              	.LVL5:
  77 0042 83A94700 		lw	s3,%lo(.LC0+4)(a5)
  78 0046 370B0000 		lui	s6,%hi(SystemCoreClock)
  79              	.L4:
  67:main.c        **** 	    delta_mtime = get_timer_value() - start_mtime;
  80              		.loc 1 67 2 is_stmt 1 discriminator 1
  68:main.c        **** 	}while(delta_mtime <(SystemCoreClock/4000000.0 *count ));
  81              		.loc 1 68 6 discriminator 1
  68:main.c        **** 	}while(delta_mtime <(SystemCoreClock/4000000.0 *count ));
  82              		.loc 1 68 20 is_stmt 0 discriminator 1
  83 004a 97000000 		call	get_timer_value
  83      E7800000 
  84              	.LVL6:
  85 0052 AA87     		mv	a5,a0
  86              	.LVL7:
  68:main.c        **** 	}while(delta_mtime <(SystemCoreClock/4000000.0 *count ));
  87              		.loc 1 68 18 discriminator 1
  88 0054 018D     		sub	a0,a0,s0
  89              	.LVL8:
  90 0056 B3B7A700 		sgtu	a5,a0,a5
  91              	.LVL9:
  92 005a 858D     		sub	a1,a1,s1
  93              		.loc 1 69 21 discriminator 1
  94 005c 9D8D     		sub	a1,a1,a5
GAS LISTING C:\Users\elias\AppData\Local\Temp\ccw7dSSe.s 			page 4


  95 005e 97000000 		call	__floatundidf
  95      E7800000 
  96              	.LVL10:
  97 0066 2A8A     		mv	s4,a0
  98              		.loc 1 69 38 discriminator 1
  99 0068 03250B00 		lw	a0,%lo(SystemCoreClock)(s6)
 100              		.loc 1 69 21 discriminator 1
 101 006c AE8A     		mv	s5,a1
 102              		.loc 1 69 38 discriminator 1
 103 006e 97000000 		call	__floatunsidf
 103      E7800000 
 104              	.LVL11:
 105 0076 4A86     		mv	a2,s2
 106 0078 CE86     		mv	a3,s3
 107 007a 97000000 		call	__divdf3
 107      E7800000 
 108              	.LVL12:
 109 0082 2A8C     		mv	s8,a0
 110              		.loc 1 69 49 discriminator 1
 111 0084 5E85     		mv	a0,s7
 112              		.loc 1 69 38 discriminator 1
 113 0086 AE8C     		mv	s9,a1
 114              		.loc 1 69 49 discriminator 1
 115 0088 97000000 		call	__floatunsidf
 115      E7800000 
 116              	.LVL13:
 117 0090 2A86     		mv	a2,a0
 118 0092 AE86     		mv	a3,a1
 119 0094 6285     		mv	a0,s8
 120 0096 E685     		mv	a1,s9
 121 0098 97000000 		call	__muldf3
 121      E7800000 
 122              	.LVL14:
 123              		.loc 1 69 2 discriminator 1
 124 00a0 2A86     		mv	a2,a0
 125 00a2 AE86     		mv	a3,a1
 126 00a4 5285     		mv	a0,s4
 127 00a6 D685     		mv	a1,s5
 128 00a8 97000000 		call	__ltdf2
 128      E7800000 
 129              	.LVL15:
 130 00b0 E34D05F8 		blt	a0,zero,.L4
  70:main.c        **** } ...
 131              		.loc 1 70 1
 132 00b4 B250     		lw	ra,44(sp)
 133              		.cfi_restore 1
 134 00b6 2254     		lw	s0,40(sp)
 135              		.cfi_restore 8
 136              	.LVL16:
 137 00b8 9254     		lw	s1,36(sp)
 138              		.cfi_restore 9
 139 00ba 0259     		lw	s2,32(sp)
 140              		.cfi_restore 18
 141 00bc F249     		lw	s3,28(sp)
 142              		.cfi_restore 19
 143 00be 624A     		lw	s4,24(sp)
 144              		.cfi_restore 20
GAS LISTING C:\Users\elias\AppData\Local\Temp\ccw7dSSe.s 			page 5


 145 00c0 D24A     		lw	s5,20(sp)
 146              		.cfi_restore 21
 147 00c2 424B     		lw	s6,16(sp)
 148              		.cfi_restore 22
 149 00c4 B24B     		lw	s7,12(sp)
 150              		.cfi_restore 23
 151              	.LVL17:
 152 00c6 224C     		lw	s8,8(sp)
 153              		.cfi_restore 24
 154 00c8 924C     		lw	s9,4(sp)
 155              		.cfi_restore 25
 156 00ca 4561     		addi	sp,sp,48
 157              	.LCFI1:
 158              		.cfi_def_cfa_offset 0
 159 00cc 8280     		jr	ra
 160              		.cfi_endproc
 161              	.LFE3:
 163              		.section	.text.startup.main,"ax",@progbits
 164              		.align	1
 165              		.globl	main
 167              	main:
 168              	.LFB2:
  15:main.c        **** int main(void){
 169              		.loc 1 15 15 is_stmt 1
 170              		.cfi_startproc
  17:main.c        ****   ADC3powerUpInit(1);                       
 171              		.loc 1 17 3
  15:main.c        **** int main(void){
 172              		.loc 1 15 15 is_stmt 0
 173 0000 130101BD 		addi	sp,sp,-1072
 174              	.LCFI2:
 175              		.cfi_def_cfa_offset 1072
  17:main.c        ****   ADC3powerUpInit(1);                       
 176              		.loc 1 17 3
 177 0004 0545     		li	a0,1
  15:main.c        **** int main(void){
 178              		.loc 1 15 15
 179 0006 23261142 		sw	ra,1068(sp)
 180 000a 23248142 		sw	s0,1064(sp)
 181 000e 23229142 		sw	s1,1060(sp)
 182 0012 23202143 		sw	s2,1056(sp)
 183 0016 232E3141 		sw	s3,1052(sp)
 184 001a 232C4141 		sw	s4,1048(sp)
 185 001e 232A5141 		sw	s5,1044(sp)
 186 0022 23286141 		sw	s6,1040(sp)
 187 0026 23267141 		sw	s7,1036(sp)
 188 002a 23248141 		sw	s8,1032(sp)
 189              		.cfi_offset 1, -4
 190              		.cfi_offset 8, -8
 191              		.cfi_offset 9, -12
 192              		.cfi_offset 18, -16
 193              		.cfi_offset 19, -20
 194              		.cfi_offset 20, -24
 195              		.cfi_offset 21, -28
 196              		.cfi_offset 22, -32
 197              		.cfi_offset 23, -36
 198              		.cfi_offset 24, -40
GAS LISTING C:\Users\elias\AppData\Local\Temp\ccw7dSSe.s 			page 6


  17:main.c        ****   ADC3powerUpInit(1);                       
 199              		.loc 1 17 3
 200 002e 97000000 		call	ADC3powerUpInit
 200      E7800000 
 201              	.LVL18:
  18:main.c        ****   Lcd_SetType(LCD_INVERTED);                
 202              		.loc 1 18 3 is_stmt 1
 203 0036 0545     		li	a0,1
 204 0038 97000000 		call	Lcd_SetType
 204      E7800000 
 205              	.LVL19:
  19:main.c        ****   Lcd_Init();                               
 206              		.loc 1 19 3
 207 0040 97000000 		call	Lcd_Init
 207      E7800000 
 208              	.LVL20:
  20:main.c        ****   LCD_Clear(BLACK);                         
 209              		.loc 1 20 3
 210 0048 0145     		li	a0,0
 211 004a 97000000 		call	LCD_Clear
 211      E7800000 
 212              	.LVL21:
  22:main.c        ****   int adcValues = 0;
 213              		.loc 1 22 3
  23:main.c        ****   Complex waveSample[WavePoints];
 214              		.loc 1 23 3
  25:main.c        ****   for (int i = 0; i < WavePoints; i++){
 215              		.loc 1 25 3
 216              	.LBB2:
  25:main.c        ****   for (int i = 0; i < WavePoints; i++){
 217              		.loc 1 25 8
 218 0052 13070140 		addi	a4,sp,1024
 219              	.LBE2:
  20:main.c        ****   LCD_Clear(BLACK);                         
 220              		.loc 1 20 3 is_stmt 0
 221 0056 8A87     		mv	a5,sp
 222              	.LVL22:
 223              	.L9:
 224              	.LBB3:
  26:main.c        ****     waveSample[i].real=0;
 225              		.loc 1 26 5 is_stmt 1 discriminator 3
  26:main.c        ****     waveSample[i].real=0;
 226              		.loc 1 26 23 is_stmt 0 discriminator 3
 227 0058 23A00700 		sw	zero,0(a5)
  27:main.c        ****     waveSample[i].imag=0;
 228              		.loc 1 27 5 is_stmt 1 discriminator 3
  27:main.c        ****     waveSample[i].imag=0;
 229              		.loc 1 27 23 is_stmt 0 discriminator 3
 230 005c 23A20700 		sw	zero,4(a5)
 231 0060 A107     		addi	a5,a5,8
  25:main.c        ****   for (int i = 0; i < WavePoints; i++){
 232              		.loc 1 25 3 discriminator 3
 233 0062 E39BE7FE 		bne	a5,a4,.L9
 234              	.LBE3:
  37:main.c        ****     if(adc_flag_get(ADC0,ADC_FLAG_EOC)==SET){        
 235              		.loc 1 37 8
 236 0066 B7290140 		li	s3,1073815552
GAS LISTING C:\Users\elias\AppData\Local\Temp\ccw7dSSe.s 			page 7


  22:main.c        ****   int adcValues = 0;
 237              		.loc 1 22 7
 238 006a 0144     		li	s0,0
 239 006c 13090120 		addi	s2,sp,512
  37:main.c        ****     if(adc_flag_get(ADC0,ADC_FLAG_EOC)==SET){        
 240              		.loc 1 37 8
 241 0070 93890940 		addi	s3,s3,1024
  37:main.c        ****     if(adc_flag_get(ADC0,ADC_FLAG_EOC)==SET){        
 242              		.loc 1 37 7
 243 0074 054A     		li	s4,1
  38:main.c        ****         waveSample[adcValues].real = ((((adc_regular_data_read(ADC0))/5) <<8)/1241);
 244              		.loc 1 38 70
 245 0076 954B     		li	s7,5
  38:main.c        ****         waveSample[adcValues].real = ((((adc_regular_data_read(ADC0))/5) <<8)/1241);
 246              		.loc 1 38 78
 247 0078 130B904D 		li	s6,1241
  42:main.c        ****       if (adcValues >= WavePoints){
 248              		.loc 1 42 10
 249 007c 930AF007 		li	s5,127
 250              	.LBB4:
  45:main.c        ****           LCD_DrawLine(i*2, 70, i*2, (70-(cordic_hypotenuse(((waveSample[i].imag * 2) / WavePoints)
 251              		.loc 1 45 41
 252 0080 93046004 		li	s1,70
 253              	.LVL23:
 254              	.L10:
 255              	.LBE4:
  35:main.c        ****   while(1)
 256              		.loc 1 35 3 is_stmt 1
  37:main.c        ****     if(adc_flag_get(ADC0,ADC_FLAG_EOC)==SET){        
 257              		.loc 1 37 5
  37:main.c        ****     if(adc_flag_get(ADC0,ADC_FLAG_EOC)==SET){        
 258              		.loc 1 37 8 is_stmt 0
 259 0084 8945     		li	a1,2
 260 0086 4E85     		mv	a0,s3
 261 0088 97000000 		call	adc_flag_get
 261      E7800000 
 262              	.LVL24:
  37:main.c        ****     if(adc_flag_get(ADC0,ADC_FLAG_EOC)==SET){        
 263              		.loc 1 37 7
 264 0090 E31A45FF 		bne	a0,s4,.L10
  38:main.c        ****         waveSample[adcValues].real = ((((adc_regular_data_read(ADC0))/5) <<8)/1241);
 265              		.loc 1 38 9 is_stmt 1
  38:main.c        ****         waveSample[adcValues].real = ((((adc_regular_data_read(ADC0))/5) <<8)/1241);
 266              		.loc 1 38 42 is_stmt 0
 267 0094 4E85     		mv	a0,s3
 268 0096 97000000 		call	adc_regular_data_read
 268      E7800000 
 269              	.LVL25:
  38:main.c        ****         waveSample[adcValues].real = ((((adc_regular_data_read(ADC0))/5) <<8)/1241);
 270              		.loc 1 38 70
 271 009e B3577503 		divu	a5,a0,s7
  38:main.c        ****         waveSample[adcValues].real = ((((adc_regular_data_read(ADC0))/5) <<8)/1241);
 272              		.loc 1 38 36
 273 00a2 13173400 		slli	a4,s0,3
 274 00a6 93060140 		addi	a3,sp,1024
 275 00aa 3697     		add	a4,a3,a4
  40:main.c        ****         adcValues++;
GAS LISTING C:\Users\elias\AppData\Local\Temp\ccw7dSSe.s 			page 8


 276              		.loc 1 40 18
 277 00ac 0504     		addi	s0,s0,1
 278              	.LVL26:
  41:main.c        ****         delay_01us(15);
 279              		.loc 1 41 9
 280 00ae 3D45     		li	a0,15
  39:main.c        ****         waveSample[adcValues].imag = 0;
 281              		.loc 1 39 36
 282 00b0 232207C0 		sw	zero,-1020(a4)
  38:main.c        ****         waveSample[adcValues].real = ((((adc_regular_data_read(ADC0))/5) <<8)/1241);
 283              		.loc 1 38 70
 284 00b4 C207     		slli	a5,a5,16
 285 00b6 C183     		srli	a5,a5,16
  38:main.c        ****         waveSample[adcValues].real = ((((adc_regular_data_read(ADC0))/5) <<8)/1241);
 286              		.loc 1 38 74
 287 00b8 A207     		slli	a5,a5,8
  38:main.c        ****         waveSample[adcValues].real = ((((adc_regular_data_read(ADC0))/5) <<8)/1241);
 288              		.loc 1 38 78
 289 00ba B3C76703 		div	a5,a5,s6
  38:main.c        ****         waveSample[adcValues].real = ((((adc_regular_data_read(ADC0))/5) <<8)/1241);
 290              		.loc 1 38 36
 291 00be 2320F7C0 		sw	a5,-1024(a4)
  39:main.c        ****         waveSample[adcValues].imag = 0;
 292              		.loc 1 39 9 is_stmt 1
  40:main.c        ****         adcValues++;
 293              		.loc 1 40 9
 294              	.LVL27:
  41:main.c        ****         delay_01us(15);
 295              		.loc 1 41 9
 296 00c2 97000000 		call	delay_01us
 296      E7800000 
 297              	.LVL28:
  42:main.c        ****       if (adcValues >= WavePoints){
 298              		.loc 1 42 7
  42:main.c        ****       if (adcValues >= WavePoints){
 299              		.loc 1 42 10 is_stmt 0
 300 00ca 63D98A06 		ble	s0,s5,.L11
  43:main.c        ****         fft(waveSample, WavePoints);
 301              		.loc 1 43 9 is_stmt 1
 302 00ce 93050008 		li	a1,128
 303 00d2 0A85     		mv	a0,sp
 304 00d4 97000000 		call	fft
 304      E7800000 
 305              	.LVL29:
  44:main.c        ****         for (int i = 0; i < WavePoints/2; i++){
 306              		.loc 1 44 9
 307              	.LBB5:
  44:main.c        ****         for (int i = 0; i < WavePoints/2; i++){
 308              		.loc 1 44 14
 309              	.LBE5:
  43:main.c        ****         fft(waveSample, WavePoints);
 310              		.loc 1 43 9 is_stmt 0
 311 00dc 0A8C     		mv	s8,sp
 312 00de 0144     		li	s0,0
 313              	.LVL30:
 314              	.L12:
 315              	.LBB6:
GAS LISTING C:\Users\elias\AppData\Local\Temp\ccw7dSSe.s 			page 9


  45:main.c        ****           LCD_DrawLine(i*2, 70, i*2, (70-(cordic_hypotenuse(((waveSample[i].imag * 2) / WavePoints)
 316              		.loc 1 45 11 is_stmt 1 discriminator 3
  45:main.c        ****           LCD_DrawLine(i*2, 70, i*2, (70-(cordic_hypotenuse(((waveSample[i].imag * 2) / WavePoints)
 317              		.loc 1 45 128 is_stmt 0 discriminator 3
 318 00e0 03270C00 		lw	a4,0(s8)
  45:main.c        ****           LCD_DrawLine(i*2, 70, i*2, (70-(cordic_hypotenuse(((waveSample[i].imag * 2) / WavePoints)
 319              		.loc 1 45 87 discriminator 3
 320 00e4 83274C00 		lw	a5,4(s8)
 321 00e8 210C     		addi	s8,s8,8
  45:main.c        ****           LCD_DrawLine(i*2, 70, i*2, (70-(cordic_hypotenuse(((waveSample[i].imag * 2) / WavePoints)
 322              		.loc 1 45 128 discriminator 3
 323 00ea 9355F741 		srai	a1,a4,31
  45:main.c        ****           LCD_DrawLine(i*2, 70, i*2, (70-(cordic_hypotenuse(((waveSample[i].imag * 2) / WavePoints)
 324              		.loc 1 45 87 discriminator 3
 325 00ee 13D5F741 		srai	a0,a5,31
  45:main.c        ****           LCD_DrawLine(i*2, 70, i*2, (70-(cordic_hypotenuse(((waveSample[i].imag * 2) / WavePoints)
 326              		.loc 1 45 128 discriminator 3
 327 00f2 93F5F503 		andi	a1,a1,63
  45:main.c        ****           LCD_DrawLine(i*2, 70, i*2, (70-(cordic_hypotenuse(((waveSample[i].imag * 2) / WavePoints)
 328              		.loc 1 45 87 discriminator 3
 329 00f6 1375F503 		andi	a0,a0,63
  45:main.c        ****           LCD_DrawLine(i*2, 70, i*2, (70-(cordic_hypotenuse(((waveSample[i].imag * 2) / WavePoints)
 330              		.loc 1 45 128 discriminator 3
 331 00fa BA95     		add	a1,a1,a4
  45:main.c        ****           LCD_DrawLine(i*2, 70, i*2, (70-(cordic_hypotenuse(((waveSample[i].imag * 2) / WavePoints)
 332              		.loc 1 45 87 discriminator 3
 333 00fc 3E95     		add	a0,a0,a5
  45:main.c        ****           LCD_DrawLine(i*2, 70, i*2, (70-(cordic_hypotenuse(((waveSample[i].imag * 2) / WavePoints)
 334              		.loc 1 45 43 discriminator 3
 335 00fe 9985     		srai	a1,a1,6
 336 0100 1985     		srai	a0,a0,6
 337 0102 97000000 		call	cordic_hypotenuse
 337      E7800000 
 338              	.LVL31:
  45:main.c        ****           LCD_DrawLine(i*2, 70, i*2, (70-(cordic_hypotenuse(((waveSample[i].imag * 2) / WavePoints)
 339              		.loc 1 45 11 discriminator 3
 340 010a B386A440 		sub	a3,s1,a0
 341 010e 2286     		mv	a2,s0
 342 0110 2285     		mv	a0,s0
 343 0112 1307007E 		li	a4,2016
 344 0116 93056004 		li	a1,70
 345 011a 97000000 		call	LCD_DrawLine
 345      E7800000 
 346              	.LVL32:
  46:main.c        ****           LCD_Wait_On_Queue();
 347              		.loc 1 46 11 is_stmt 1 discriminator 3
 348 0122 0904     		addi	s0,s0,2
 349 0124 97000000 		call	LCD_Wait_On_Queue
 349      E7800000 
 350              	.LVL33:
  44:main.c        ****         for (int i = 0; i < WavePoints/2; i++){
 351              		.loc 1 44 9 is_stmt 0 discriminator 3
 352 012c E31A89FB 		bne	s2,s8,.L12
 353              	.LBE6:
  48:main.c        ****         LCD_Clear(BLACK);
 354              		.loc 1 48 9 is_stmt 1
 355 0130 0145     		li	a0,0
GAS LISTING C:\Users\elias\AppData\Local\Temp\ccw7dSSe.s 			page 10


 356 0132 97000000 		call	LCD_Clear
 356      E7800000 
 357              	.LVL34:
  49:main.c        ****         adcValues = 0;
 358              		.loc 1 49 9
  49:main.c        ****         adcValues = 0;
 359              		.loc 1 49 19 is_stmt 0
 360 013a 0144     		li	s0,0
 361              	.LVL35:
 362              	.L11:
  51:main.c        ****       adc_software_trigger_enable(ADC0,ADC_REGULAR_CHANNEL);
 363              		.loc 1 51 7 is_stmt 1
 364 013c 8545     		li	a1,1
 365 013e 4E85     		mv	a0,s3
 366 0140 97000000 		call	adc_software_trigger_enable
 366      E7800000 
 367              	.LVL36:
 368 0148 35BF     		j	.L10
 369              		.cfi_endproc
 370              	.LFE2:
 372              		.section	.rodata.delay_01us.cst8,"aM",@progbits,8
 373              		.align	3
 374              	.LC0:
 375 0000 00000000 		.word	0
 376 0004 80844E41 		.word	1095664768
 377              		.text
 378              	.Letext0:
 379              		.file 2 "c:\\users\\elias\\desktop\\fft\\projektet\\toolchain-gd32v-win\\compiler\\riscv64-unknown
 380              		.file 3 "c:\\users\\elias\\desktop\\fft\\projektet\\toolchain-gd32v-win\\compiler\\riscv64-unknown
 381              		.file 4 "c:\\users\\elias\\desktop\\fft\\projektet\\toolchain-gd32v-win\\compiler\\lib\\gcc\\riscv
 382              		.file 5 "c:\\users\\elias\\desktop\\fft\\projektet\\toolchain-gd32v-win\\compiler\\riscv64-unknown
 383              		.file 6 "c:\\users\\elias\\desktop\\fft\\projektet\\toolchain-gd32v-win\\compiler\\riscv64-unknown
 384              		.file 7 "c:\\users\\elias\\desktop\\fft\\projektet\\toolchain-gd32v-win\\compiler\\riscv64-unknown
 385              		.file 8 "../../firmware/GD32VF103_standard_peripheral/system_gd32vf103.h"
 386              		.file 9 "c:\\users\\elias\\desktop\\fft\\projektet\\toolchain-gd32v-win\\compiler\\riscv64-unknown
 387              		.file 10 "lcd.h"
 388              		.file 11 "fft.h"
 389              		.file 12 "../../firmware/RISCV/drivers/n200_func.h"
 390              		.file 13 "cordic-math.h"
 391              		.file 14 "adc.h"
 392              		.file 15 "../../firmware/GD32VF103_standard_peripheral/Include/gd32vf103_adc.h"
 393              		.file 16 "../../firmware/GD32VF103_standard_peripheral/gd32vf103.h"
GAS LISTING C:\Users\elias\AppData\Local\Temp\ccw7dSSe.s 			page 11

