GAS LISTING C:\Users\elias\AppData\Local\Temp\ccIPN9Nl.s 			page 1


   1              		.file	"pwm.c"
   2              		.option nopic
   3              		.attribute arch, "rv32i2p0_m2p0_a2p0_c2p0"
   4              		.attribute unaligned_access, 0
   5              		.attribute stack_align, 16
   6              		.text
   7              	.Ltext0:
   8              		.cfi_sections	.debug_frame
   9              		.section	.text.T1powerUpInitPWM,"ax",@progbits
  10              		.align	1
  11              		.globl	T1powerUpInitPWM
  13              	T1powerUpInitPWM:
  14              	.LFB2:
  15              		.file 1 "pwm.c"
   1:pwm.c         **** #include "pwm.h"
   2:pwm.c         **** 
   3:pwm.c         **** void T1powerUpInitPWM(uint16_t ch){
  16              		.loc 1 3 35
  17              		.cfi_startproc
  18              	.LVL0:
   4:pwm.c         ****     timer_oc_parameter_struct timer_ocinitpara;
  19              		.loc 1 4 5
   5:pwm.c         ****     timer_parameter_struct timer_initpara;
  20              		.loc 1 5 5
   6:pwm.c         ****     rcu_periph_clock_enable(RCU_GPIOA);
  21              		.loc 1 6 5
   3:pwm.c         ****     timer_oc_parameter_struct timer_ocinitpara;
  22              		.loc 1 3 35 is_stmt 0
  23 0000 3971     		addi	sp,sp,-64
  24              	.LCFI0:
  25              		.cfi_def_cfa_offset 64
  26 0002 22DC     		sw	s0,56(sp)
  27              		.cfi_offset 8, -8
  28 0004 2A84     		mv	s0,a0
  29              		.loc 1 6 5
  30 0006 13052060 		li	a0,1538
  31              	.LVL1:
   3:pwm.c         ****     timer_oc_parameter_struct timer_ocinitpara;
  32              		.loc 1 3 35
  33 000a 4ED6     		sw	s3,44(sp)
  34 000c 06DE     		sw	ra,60(sp)
  35 000e 26DA     		sw	s1,52(sp)
  36 0010 4AD8     		sw	s2,48(sp)
  37              		.cfi_offset 19, -20
  38              		.cfi_offset 1, -4
  39              		.cfi_offset 9, -12
  40              		.cfi_offset 18, -16
  41              		.loc 1 6 5
  42 0012 97000000 		call	rcu_periph_clock_enable
  42      E7800000 
  43              	.LVL2:
   7:pwm.c         ****     rcu_periph_clock_enable(RCU_AF);
  44              		.loc 1 7 5 is_stmt 1
  45 001a 93791400 		andi	s3,s0,1
  46 001e 13050060 		li	a0,1536
  47 0022 97000000 		call	rcu_periph_clock_enable
  47      E7800000 
GAS LISTING C:\Users\elias\AppData\Local\Temp\ccIPN9Nl.s 			page 2


  48              	.LVL3:
   8:pwm.c         ****     if (ch&0x1) gpio_init(GPIOA, GPIO_MODE_AF_PP, GPIO_OSPEED_50MHZ, GPIO_PIN_0);
  49              		.loc 1 8 5
  50              		.loc 1 8 8 is_stmt 0
  51 002a 639F0922 		bne	s3,zero,.L52
  52              	.L2:
   9:pwm.c         ****     if (ch&0x2) gpio_init(GPIOA, GPIO_MODE_AF_PP, GPIO_OSPEED_50MHZ, GPIO_PIN_1);
  53              		.loc 1 9 5 is_stmt 1
  54 002e 13792400 		andi	s2,s0,2
  55              		.loc 1 9 8 is_stmt 0
  56 0032 631F0920 		bne	s2,zero,.L53
  57              	.L3:
  10:pwm.c         ****     if (ch&0x4) gpio_init(GPIOA, GPIO_MODE_AF_PP, GPIO_OSPEED_50MHZ, GPIO_PIN_2);
  58              		.loc 1 10 5 is_stmt 1
  59 0036 93744400 		andi	s1,s0,4
  60              		.loc 1 10 8 is_stmt 0
  61 003a 639F041E 		bne	s1,zero,.L54
  62              	.L4:
  11:pwm.c         ****     if (ch&0x8) gpio_init(GPIOA, GPIO_MODE_AF_PP, GPIO_OSPEED_50MHZ, GPIO_PIN_3);
  63              		.loc 1 11 5 is_stmt 1
  64 003e 2188     		andi	s0,s0,8
  65              		.loc 1 11 8 is_stmt 0
  66 0040 6310041E 		bne	s0,zero,.L55
  67              	.L5:
  12:pwm.c         ****     rcu_periph_clock_enable(RCU_TIMER1);
  68              		.loc 1 12 5 is_stmt 1
  69 0044 13050070 		li	a0,1792
  70 0048 97000000 		call	rcu_periph_clock_enable
  70      E7800000 
  71              	.LVL4:
  13:pwm.c         **** 
  14:pwm.c         ****     timer_deinit(TIMER1);
  72              		.loc 1 14 5
  73 0050 37050040 		li	a0,1073741824
  74 0054 97000000 		call	timer_deinit
  74      E7800000 
  75              	.LVL5:
  15:pwm.c         ****     timer_struct_para_init(&timer_initpara);
  76              		.loc 1 15 5
  77 005c 0808     		addi	a0,sp,16
  78 005e 97000000 		call	timer_struct_para_init
  78      E7800000 
  79              	.LVL6:
  16:pwm.c         ****     timer_initpara.prescaler         = 107;
  80              		.loc 1 16 5
  17:pwm.c         ****     timer_initpara.alignedmode       = TIMER_COUNTER_EDGE;
  81              		.loc 1 17 5
  18:pwm.c         ****     timer_initpara.counterdirection  = TIMER_COUNTER_UP;
  82              		.loc 1 18 5
  16:pwm.c         ****     timer_initpara.prescaler         = 107;
  83              		.loc 1 16 38 is_stmt 0
  84 0066 9307B006 		li	a5,107
  85 006a 3EC8     		sw	a5,16(sp)
  19:pwm.c         ****     timer_initpara.period            = 15999;
  86              		.loc 1 19 38
  87 006c 9167     		li	a5,16384
  88 006e 9387F7E7 		addi	a5,a5,-385
GAS LISTING C:\Users\elias\AppData\Local\Temp\ccIPN9Nl.s 			page 3


  20:pwm.c         ****     timer_initpara.clockdivision     = TIMER_CKDIV_DIV1;
  21:pwm.c         ****     timer_initpara.repetitioncounter = 0;
  22:pwm.c         ****     timer_init(TIMER1, &timer_initpara);
  89              		.loc 1 22 5
  90 0072 0C08     		addi	a1,sp,16
  91 0074 37050040 		li	a0,1073741824
  19:pwm.c         ****     timer_initpara.period            = 15999;
  92              		.loc 1 19 38
  93 0078 3ECC     		sw	a5,24(sp)
  18:pwm.c         ****     timer_initpara.period            = 15999;
  94              		.loc 1 18 38
  95 007a 231A0100 		sh	zero,20(sp)
  19:pwm.c         ****     timer_initpara.period            = 15999;
  96              		.loc 1 19 5 is_stmt 1
  20:pwm.c         ****     timer_initpara.clockdivision     = TIMER_CKDIV_DIV1;
  97              		.loc 1 20 5
  20:pwm.c         ****     timer_initpara.clockdivision     = TIMER_CKDIV_DIV1;
  98              		.loc 1 20 38 is_stmt 0
  99 007e 231E0100 		sh	zero,28(sp)
  21:pwm.c         ****     timer_init(TIMER1, &timer_initpara);
 100              		.loc 1 21 5 is_stmt 1
  21:pwm.c         ****     timer_init(TIMER1, &timer_initpara);
 101              		.loc 1 21 38 is_stmt 0
 102 0082 230F0100 		sb	zero,30(sp)
 103              		.loc 1 22 5 is_stmt 1
 104 0086 97000000 		call	timer_init
 104      E7800000 
 105              	.LVL7:
  23:pwm.c         **** 
  24:pwm.c         ****     timer_channel_output_struct_para_init(&timer_ocinitpara);
 106              		.loc 1 24 5
 107 008e 4800     		addi	a0,sp,4
 108 0090 97000000 		call	timer_channel_output_struct_para_init
 108      E7800000 
 109              	.LVL8:
  25:pwm.c         ****     timer_ocinitpara.outputstate  = TIMER_CCX_ENABLE;
 110              		.loc 1 25 5
  26:pwm.c         ****     timer_ocinitpara.outputnstate = TIMER_CCXN_DISABLE;
 111              		.loc 1 26 5
  27:pwm.c         ****     timer_ocinitpara.ocpolarity   = TIMER_OC_POLARITY_HIGH;
 112              		.loc 1 27 5
  28:pwm.c         ****     timer_ocinitpara.ocnpolarity  = TIMER_OCN_POLARITY_HIGH;
 113              		.loc 1 28 5
  29:pwm.c         ****     timer_ocinitpara.ocidlestate  = TIMER_OC_IDLE_STATE_LOW;
 114              		.loc 1 29 5
  30:pwm.c         ****     timer_ocinitpara.ocnidlestate = TIMER_OCN_IDLE_STATE_LOW;
 115              		.loc 1 30 5
  25:pwm.c         ****     timer_ocinitpara.outputnstate = TIMER_CCXN_DISABLE;
 116              		.loc 1 25 35 is_stmt 0
 117 0098 8547     		li	a5,1
 118 009a 3EC2     		sw	a5,4(sp)
  27:pwm.c         ****     timer_ocinitpara.ocnpolarity  = TIMER_OCN_POLARITY_HIGH;
 119              		.loc 1 27 35
 120 009c 02C4     		sw	zero,8(sp)
  29:pwm.c         ****     timer_ocinitpara.ocnidlestate = TIMER_OCN_IDLE_STATE_LOW;
 121              		.loc 1 29 35
 122 009e 02C6     		sw	zero,12(sp)
GAS LISTING C:\Users\elias\AppData\Local\Temp\ccIPN9Nl.s 			page 4


  31:pwm.c         ****     if (ch&0x1) timer_channel_output_config(TIMER1,TIMER_CH_0,&timer_ocinitpara);
 123              		.loc 1 31 5 is_stmt 1
 124              		.loc 1 31 8 is_stmt 0
 125 00a0 63950916 		bne	s3,zero,.L56
  32:pwm.c         ****     if (ch&0x2) timer_channel_output_config(TIMER1,TIMER_CH_1,&timer_ocinitpara);
 126              		.loc 1 32 5 is_stmt 1
 127              		.loc 1 32 8 is_stmt 0
 128 00a4 63180914 		bne	s2,zero,.L57
 129              	.L7:
  33:pwm.c         ****     if (ch&0x4) timer_channel_output_config(TIMER1,TIMER_CH_2,&timer_ocinitpara);
 130              		.loc 1 33 5 is_stmt 1
 131              		.loc 1 33 8 is_stmt 0
 132 00a8 639B0412 		bne	s1,zero,.L58
 133              	.L8:
  34:pwm.c         ****     if (ch&0x8) timer_channel_output_config(TIMER1,TIMER_CH_3,&timer_ocinitpara);
 134              		.loc 1 34 5 is_stmt 1
 135              		.loc 1 34 8 is_stmt 0
 136 00ac 631E0410 		bne	s0,zero,.L59
 137              	.L9:
  35:pwm.c         **** 
  36:pwm.c         ****     if (ch&0x1) {
 138              		.loc 1 36 5 is_stmt 1
 139              		.loc 1 36 8 is_stmt 0
 140 00b0 639E090C 		bne	s3,zero,.L60
 141              	.L10:
  37:pwm.c         ****         timer_channel_output_pulse_value_config(TIMER1,TIMER_CH_0,11999);
  38:pwm.c         ****         timer_channel_output_mode_config(TIMER1,TIMER_CH_0,TIMER_OC_MODE_PWM0);
  39:pwm.c         ****         timer_channel_output_shadow_config(TIMER1,TIMER_CH_0,TIMER_OC_SHADOW_DISABLE);
  40:pwm.c         ****     }
  41:pwm.c         ****    if (ch&0x2) {
 142              		.loc 1 41 4 is_stmt 1
 143              		.loc 1 41 7 is_stmt 0
 144 00b4 631F0908 		bne	s2,zero,.L61
 145              	.L11:
  42:pwm.c         ****         timer_channel_output_pulse_value_config(TIMER1,TIMER_CH_1,11999);
  43:pwm.c         ****         timer_channel_output_mode_config(TIMER1,TIMER_CH_1,TIMER_OC_MODE_PWM0);
  44:pwm.c         ****         timer_channel_output_shadow_config(TIMER1,TIMER_CH_1,TIMER_OC_SHADOW_DISABLE);
  45:pwm.c         ****     }
  46:pwm.c         ****    if (ch&0x4) {
 146              		.loc 1 46 4 is_stmt 1
 147              		.loc 1 46 7 is_stmt 0
 148 00b8 8DE4     		bne	s1,zero,.L62
 149              	.L12:
  47:pwm.c         ****         timer_channel_output_pulse_value_config(TIMER1,TIMER_CH_2,11999);
  48:pwm.c         ****         timer_channel_output_mode_config(TIMER1,TIMER_CH_2,TIMER_OC_MODE_PWM0);
  49:pwm.c         ****         timer_channel_output_shadow_config(TIMER1,TIMER_CH_2,TIMER_OC_SHADOW_DISABLE);
  50:pwm.c         ****     }
  51:pwm.c         ****    if (ch&0x8) {
 150              		.loc 1 51 4 is_stmt 1
 151              		.loc 1 51 7 is_stmt 0
 152 00ba 25E0     		bne	s0,zero,.L63
 153              	.L13:
  52:pwm.c         ****         timer_channel_output_pulse_value_config(TIMER1,TIMER_CH_3,11999);
  53:pwm.c         ****         timer_channel_output_mode_config(TIMER1,TIMER_CH_3,TIMER_OC_MODE_PWM0);
  54:pwm.c         ****         timer_channel_output_shadow_config(TIMER1,TIMER_CH_3,TIMER_OC_SHADOW_DISABLE);
  55:pwm.c         ****     }
  56:pwm.c         ****     
GAS LISTING C:\Users\elias\AppData\Local\Temp\ccIPN9Nl.s 			page 5


  57:pwm.c         ****     timer_auto_reload_shadow_enable(TIMER1);
 154              		.loc 1 57 5 is_stmt 1
 155 00bc 37050040 		li	a0,1073741824
 156 00c0 97000000 		call	timer_auto_reload_shadow_enable
 156      E7800000 
 157              	.LVL9:
  58:pwm.c         ****     timer_enable(TIMER1);
 158              		.loc 1 58 5
 159 00c8 37050040 		li	a0,1073741824
 160 00cc 97000000 		call	timer_enable
 160      E7800000 
 161              	.LVL10:
  59:pwm.c         **** }
 162              		.loc 1 59 1 is_stmt 0
 163 00d4 F250     		lw	ra,60(sp)
 164              		.cfi_remember_state
 165              		.cfi_restore 1
 166 00d6 6254     		lw	s0,56(sp)
 167              		.cfi_restore 8
 168 00d8 D254     		lw	s1,52(sp)
 169              		.cfi_restore 9
 170 00da 4259     		lw	s2,48(sp)
 171              		.cfi_restore 18
 172 00dc B259     		lw	s3,44(sp)
 173              		.cfi_restore 19
 174 00de 2161     		addi	sp,sp,64
 175              	.LCFI1:
 176              		.cfi_def_cfa_offset 0
 177 00e0 8280     		jr	ra
 178              	.L62:
 179              	.LCFI2:
 180              		.cfi_restore_state
  47:pwm.c         ****         timer_channel_output_mode_config(TIMER1,TIMER_CH_2,TIMER_OC_MODE_PWM0);
 181              		.loc 1 47 9 is_stmt 1
 182 00e2 0D66     		li	a2,12288
 183 00e4 1306F6ED 		addi	a2,a2,-289
 184 00e8 8945     		li	a1,2
 185 00ea 37050040 		li	a0,1073741824
 186 00ee 97000000 		call	timer_channel_output_pulse_value_config
 186      E7800000 
 187              	.LVL11:
  48:pwm.c         ****         timer_channel_output_shadow_config(TIMER1,TIMER_CH_2,TIMER_OC_SHADOW_DISABLE);
 188              		.loc 1 48 9
 189 00f6 13060006 		li	a2,96
 190 00fa 8945     		li	a1,2
 191 00fc 37050040 		li	a0,1073741824
 192 0100 97000000 		call	timer_channel_output_mode_config
 192      E7800000 
 193              	.LVL12:
  49:pwm.c         ****     }
 194              		.loc 1 49 9
 195 0108 0146     		li	a2,0
 196 010a 8945     		li	a1,2
 197 010c 37050040 		li	a0,1073741824
 198 0110 97000000 		call	timer_channel_output_shadow_config
 198      E7800000 
 199              	.LVL13:
GAS LISTING C:\Users\elias\AppData\Local\Temp\ccIPN9Nl.s 			page 6


  51:pwm.c         ****         timer_channel_output_pulse_value_config(TIMER1,TIMER_CH_3,11999);
 200              		.loc 1 51 4
  51:pwm.c         ****         timer_channel_output_pulse_value_config(TIMER1,TIMER_CH_3,11999);
 201              		.loc 1 51 7 is_stmt 0
 202 0118 55D0     		beq	s0,zero,.L13
 203              	.L63:
  52:pwm.c         ****         timer_channel_output_mode_config(TIMER1,TIMER_CH_3,TIMER_OC_MODE_PWM0);
 204              		.loc 1 52 9 is_stmt 1
 205 011a 0D66     		li	a2,12288
 206 011c 1306F6ED 		addi	a2,a2,-289
 207 0120 8D45     		li	a1,3
 208 0122 37050040 		li	a0,1073741824
 209 0126 97000000 		call	timer_channel_output_pulse_value_config
 209      E7800000 
 210              	.LVL14:
  53:pwm.c         ****         timer_channel_output_shadow_config(TIMER1,TIMER_CH_3,TIMER_OC_SHADOW_DISABLE);
 211              		.loc 1 53 9
 212 012e 13060006 		li	a2,96
 213 0132 8D45     		li	a1,3
 214 0134 37050040 		li	a0,1073741824
 215 0138 97000000 		call	timer_channel_output_mode_config
 215      E7800000 
 216              	.LVL15:
  54:pwm.c         ****     }
 217              		.loc 1 54 9
 218 0140 0146     		li	a2,0
 219 0142 8D45     		li	a1,3
 220 0144 37050040 		li	a0,1073741824
 221 0148 97000000 		call	timer_channel_output_shadow_config
 221      E7800000 
 222              	.LVL16:
 223 0150 B5B7     		j	.L13
 224              	.L61:
  42:pwm.c         ****         timer_channel_output_mode_config(TIMER1,TIMER_CH_1,TIMER_OC_MODE_PWM0);
 225              		.loc 1 42 9
 226 0152 0D66     		li	a2,12288
 227 0154 1306F6ED 		addi	a2,a2,-289
 228 0158 8545     		li	a1,1
 229 015a 37050040 		li	a0,1073741824
 230 015e 97000000 		call	timer_channel_output_pulse_value_config
 230      E7800000 
 231              	.LVL17:
  43:pwm.c         ****         timer_channel_output_shadow_config(TIMER1,TIMER_CH_1,TIMER_OC_SHADOW_DISABLE);
 232              		.loc 1 43 9
 233 0166 13060006 		li	a2,96
 234 016a 8545     		li	a1,1
 235 016c 37050040 		li	a0,1073741824
 236 0170 97000000 		call	timer_channel_output_mode_config
 236      E7800000 
 237              	.LVL18:
  44:pwm.c         ****     }
 238              		.loc 1 44 9
 239 0178 0146     		li	a2,0
 240 017a 8545     		li	a1,1
 241 017c 37050040 		li	a0,1073741824
 242 0180 97000000 		call	timer_channel_output_shadow_config
 242      E7800000 
GAS LISTING C:\Users\elias\AppData\Local\Temp\ccIPN9Nl.s 			page 7


 243              	.LVL19:
  46:pwm.c         ****         timer_channel_output_pulse_value_config(TIMER1,TIMER_CH_2,11999);
 244              		.loc 1 46 4
  46:pwm.c         ****         timer_channel_output_pulse_value_config(TIMER1,TIMER_CH_2,11999);
 245              		.loc 1 46 7 is_stmt 0
 246 0188 8DD8     		beq	s1,zero,.L12
 247 018a A1BF     		j	.L62
 248              	.L60:
  37:pwm.c         ****         timer_channel_output_mode_config(TIMER1,TIMER_CH_0,TIMER_OC_MODE_PWM0);
 249              		.loc 1 37 9 is_stmt 1
 250 018c 0D66     		li	a2,12288
 251 018e 1306F6ED 		addi	a2,a2,-289
 252 0192 8145     		li	a1,0
 253 0194 37050040 		li	a0,1073741824
 254 0198 97000000 		call	timer_channel_output_pulse_value_config
 254      E7800000 
 255              	.LVL20:
  38:pwm.c         ****         timer_channel_output_shadow_config(TIMER1,TIMER_CH_0,TIMER_OC_SHADOW_DISABLE);
 256              		.loc 1 38 9
 257 01a0 13060006 		li	a2,96
 258 01a4 8145     		li	a1,0
 259 01a6 37050040 		li	a0,1073741824
 260 01aa 97000000 		call	timer_channel_output_mode_config
 260      E7800000 
 261              	.LVL21:
  39:pwm.c         ****     }
 262              		.loc 1 39 9
 263 01b2 0146     		li	a2,0
 264 01b4 8145     		li	a1,0
 265 01b6 37050040 		li	a0,1073741824
 266 01ba 97000000 		call	timer_channel_output_shadow_config
 266      E7800000 
 267              	.LVL22:
  41:pwm.c         ****         timer_channel_output_pulse_value_config(TIMER1,TIMER_CH_1,11999);
 268              		.loc 1 41 4
  41:pwm.c         ****         timer_channel_output_pulse_value_config(TIMER1,TIMER_CH_1,11999);
 269              		.loc 1 41 7 is_stmt 0
 270 01c2 E30B09EE 		beq	s2,zero,.L11
 271 01c6 71B7     		j	.L61
 272              	.L59:
  34:pwm.c         **** 
 273              		.loc 1 34 17 is_stmt 1 discriminator 1
 274 01c8 5000     		addi	a2,sp,4
 275 01ca 8D45     		li	a1,3
 276 01cc 37050040 		li	a0,1073741824
 277 01d0 97000000 		call	timer_channel_output_config
 277      E7800000 
 278              	.LVL23:
  36:pwm.c         ****         timer_channel_output_pulse_value_config(TIMER1,TIMER_CH_0,11999);
 279              		.loc 1 36 5 discriminator 1
  36:pwm.c         ****         timer_channel_output_pulse_value_config(TIMER1,TIMER_CH_0,11999);
 280              		.loc 1 36 8 is_stmt 0 discriminator 1
 281 01d8 E38E09EC 		beq	s3,zero,.L10
 282 01dc 45BF     		j	.L60
 283              	.L58:
  33:pwm.c         ****     if (ch&0x8) timer_channel_output_config(TIMER1,TIMER_CH_3,&timer_ocinitpara);
 284              		.loc 1 33 17 is_stmt 1 discriminator 1
GAS LISTING C:\Users\elias\AppData\Local\Temp\ccIPN9Nl.s 			page 8


 285 01de 5000     		addi	a2,sp,4
 286 01e0 8945     		li	a1,2
 287 01e2 37050040 		li	a0,1073741824
 288 01e6 97000000 		call	timer_channel_output_config
 288      E7800000 
 289              	.LVL24:
  34:pwm.c         **** 
 290              		.loc 1 34 5 discriminator 1
  34:pwm.c         **** 
 291              		.loc 1 34 8 is_stmt 0 discriminator 1
 292 01ee E30104EC 		beq	s0,zero,.L9
 293 01f2 D9BF     		j	.L59
 294              	.L57:
  32:pwm.c         ****     if (ch&0x4) timer_channel_output_config(TIMER1,TIMER_CH_2,&timer_ocinitpara);
 295              		.loc 1 32 17 is_stmt 1 discriminator 1
 296 01f4 5000     		addi	a2,sp,4
 297 01f6 8545     		li	a1,1
 298 01f8 37050040 		li	a0,1073741824
 299 01fc 97000000 		call	timer_channel_output_config
 299      E7800000 
 300              	.LVL25:
  33:pwm.c         ****     if (ch&0x8) timer_channel_output_config(TIMER1,TIMER_CH_3,&timer_ocinitpara);
 301              		.loc 1 33 5 discriminator 1
  33:pwm.c         ****     if (ch&0x8) timer_channel_output_config(TIMER1,TIMER_CH_3,&timer_ocinitpara);
 302              		.loc 1 33 8 is_stmt 0 discriminator 1
 303 0204 E38404EA 		beq	s1,zero,.L8
 304 0208 D9BF     		j	.L58
 305              	.L56:
  31:pwm.c         ****     if (ch&0x2) timer_channel_output_config(TIMER1,TIMER_CH_1,&timer_ocinitpara);
 306              		.loc 1 31 17 is_stmt 1 discriminator 1
 307 020a 5000     		addi	a2,sp,4
 308 020c 8145     		li	a1,0
 309 020e 37050040 		li	a0,1073741824
 310 0212 97000000 		call	timer_channel_output_config
 310      E7800000 
 311              	.LVL26:
  32:pwm.c         ****     if (ch&0x4) timer_channel_output_config(TIMER1,TIMER_CH_2,&timer_ocinitpara);
 312              		.loc 1 32 5 discriminator 1
  32:pwm.c         ****     if (ch&0x4) timer_channel_output_config(TIMER1,TIMER_CH_2,&timer_ocinitpara);
 313              		.loc 1 32 8 is_stmt 0 discriminator 1
 314 021a E30709E8 		beq	s2,zero,.L7
 315 021e D9BF     		j	.L57
 316              	.L55:
  11:pwm.c         ****     rcu_periph_clock_enable(RCU_TIMER1);
 317              		.loc 1 11 17 is_stmt 1 discriminator 1
 318 0220 37150140 		li	a0,1073811456
 319 0224 A146     		li	a3,8
 320 0226 0D46     		li	a2,3
 321 0228 E145     		li	a1,24
 322 022a 13050580 		addi	a0,a0,-2048
 323 022e 97000000 		call	gpio_init
 323      E7800000 
 324              	.LVL27:
 325 0236 39B5     		j	.L5
 326              	.L54:
  10:pwm.c         ****     if (ch&0x8) gpio_init(GPIOA, GPIO_MODE_AF_PP, GPIO_OSPEED_50MHZ, GPIO_PIN_3);
 327              		.loc 1 10 17 discriminator 1
GAS LISTING C:\Users\elias\AppData\Local\Temp\ccIPN9Nl.s 			page 9


 328 0238 37150140 		li	a0,1073811456
 329 023c 9146     		li	a3,4
 330 023e 0D46     		li	a2,3
 331 0240 E145     		li	a1,24
 332 0242 13050580 		addi	a0,a0,-2048
 333 0246 97000000 		call	gpio_init
 333      E7800000 
 334              	.LVL28:
 335 024e C5BB     		j	.L4
 336              	.L53:
   9:pwm.c         ****     if (ch&0x4) gpio_init(GPIOA, GPIO_MODE_AF_PP, GPIO_OSPEED_50MHZ, GPIO_PIN_2);
 337              		.loc 1 9 17 discriminator 1
 338 0250 37150140 		li	a0,1073811456
 339 0254 8946     		li	a3,2
 340 0256 0D46     		li	a2,3
 341 0258 E145     		li	a1,24
 342 025a 13050580 		addi	a0,a0,-2048
 343 025e 97000000 		call	gpio_init
 343      E7800000 
 344              	.LVL29:
 345 0266 C1BB     		j	.L3
 346              	.L52:
   8:pwm.c         ****     if (ch&0x2) gpio_init(GPIOA, GPIO_MODE_AF_PP, GPIO_OSPEED_50MHZ, GPIO_PIN_1);
 347              		.loc 1 8 17 discriminator 1
 348 0268 37150140 		li	a0,1073811456
 349 026c 8546     		li	a3,1
 350 026e 0D46     		li	a2,3
 351 0270 E145     		li	a1,24
 352 0272 13050580 		addi	a0,a0,-2048
 353 0276 97000000 		call	gpio_init
 353      E7800000 
 354              	.LVL30:
 355 027e 45BB     		j	.L2
 356              		.cfi_endproc
 357              	.LFE2:
 359              		.section	.text.T1setPWMch2,"ax",@progbits
 360              		.align	1
 361              		.globl	T1setPWMch2
 363              	T1setPWMch2:
 364              	.LFB3:
  60:pwm.c         **** 
  61:pwm.c         **** void T1setPWMch2(int value){
 365              		.loc 1 61 28
 366              		.cfi_startproc
 367              	.LVL31:
  62:pwm.c         ****     timer_channel_output_pulse_value_config(TIMER1,TIMER_CH_2,value);
 368              		.loc 1 62 5
 369 0000 2A86     		mv	a2,a0
 370 0002 8945     		li	a1,2
 371 0004 37050040 		li	a0,1073741824
 372              	.LVL32:
 373 0008 17030000 		tail	timer_channel_output_pulse_value_config
 373      67000300 
 374              	.LVL33:
 375              		.cfi_endproc
 376              	.LFE3:
 378              		.globl	__floatsidf
GAS LISTING C:\Users\elias\AppData\Local\Temp\ccIPN9Nl.s 			page 10


 379              		.globl	__divdf3
 380              		.globl	__muldf3
 381              		.globl	__fixunsdfsi
 382              		.section	.text.T1setPWMmotorB,"ax",@progbits
 383              		.align	1
 384              		.globl	T1setPWMmotorB
 386              	T1setPWMmotorB:
 387              	.LFB4:
  63:pwm.c         **** }
  64:pwm.c         **** 
  65:pwm.c         **** void T1setPWMmotorB(int throttel){
 388              		.loc 1 65 34
 389              		.cfi_startproc
 390              	.LVL34:
  66:pwm.c         ****     if (throttel>0) {
 391              		.loc 1 66 5
  65:pwm.c         ****     if (throttel>0) {
 392              		.loc 1 65 34 is_stmt 0
 393 0000 4111     		addi	sp,sp,-16
 394              	.LCFI3:
 395              		.cfi_def_cfa_offset 16
 396 0002 06C6     		sw	ra,12(sp)
 397 0004 22C4     		sw	s0,8(sp)
 398              		.cfi_offset 1, -4
 399              		.cfi_offset 8, -8
 400              		.loc 1 66 8
 401 0006 6351A006 		ble	a0,zero,.L66
  67:pwm.c         ****        timer_channel_output_pulse_value_config(TIMER1,TIMER_CH_2,(throttel/100.0)*16000);
 402              		.loc 1 67 8 is_stmt 1
 403              		.loc 1 67 75 is_stmt 0
 404 000a 97000000 		call	__floatsidf
 404      E7800000 
 405              	.LVL35:
 406 0012 B7070000 		lui	a5,%hi(.LC0)
 407 0016 03A60700 		lw	a2,%lo(.LC0)(a5)
 408 001a 83A64700 		lw	a3,%lo(.LC0+4)(a5)
 409 001e 97000000 		call	__divdf3
 409      E7800000 
 410              	.LVL36:
 411              		.loc 1 67 82
 412 0026 B7070000 		lui	a5,%hi(.LC1)
 413 002a 03A60700 		lw	a2,%lo(.LC1)(a5)
 414 002e 83A64700 		lw	a3,%lo(.LC1+4)(a5)
 415 0032 97000000 		call	__muldf3
 415      E7800000 
 416              	.LVL37:
 417              		.loc 1 67 8
 418 003a 97000000 		call	__fixunsdfsi
 418      E7800000 
 419              	.LVL38:
 420 0042 2A86     		mv	a2,a0
 421 0044 8945     		li	a1,2
 422 0046 37050040 		li	a0,1073741824
 423 004a 97000000 		call	timer_channel_output_pulse_value_config
 423      E7800000 
 424              	.LVL39:
  68:pwm.c         ****        timer_channel_output_pulse_value_config(TIMER1,TIMER_CH_3,0);
GAS LISTING C:\Users\elias\AppData\Local\Temp\ccIPN9Nl.s 			page 11


 425              		.loc 1 68 8 is_stmt 1
  69:pwm.c         ****     } else {
  70:pwm.c         ****        timer_channel_output_pulse_value_config(TIMER1,TIMER_CH_2,0);
  71:pwm.c         ****        timer_channel_output_pulse_value_config(TIMER1,TIMER_CH_3,(-throttel/100.0)*16000);
  72:pwm.c         ****     }
  73:pwm.c         **** }
 426              		.loc 1 73 1 is_stmt 0
 427 0052 2244     		lw	s0,8(sp)
 428              		.cfi_remember_state
 429              		.cfi_restore 8
 430 0054 B240     		lw	ra,12(sp)
 431              		.cfi_restore 1
  68:pwm.c         ****        timer_channel_output_pulse_value_config(TIMER1,TIMER_CH_3,0);
 432              		.loc 1 68 8
 433 0056 0146     		li	a2,0
 434              		.loc 1 73 1
  71:pwm.c         ****     }
 435              		.loc 1 71 8
 436 0058 8D45     		li	a1,3
 437 005a 37050040 		li	a0,1073741824
 438              		.loc 1 73 1
 439 005e 4101     		addi	sp,sp,16
 440              	.LCFI4:
 441              		.cfi_def_cfa_offset 0
  71:pwm.c         ****     }
 442              		.loc 1 71 8
 443 0060 17030000 		tail	timer_channel_output_pulse_value_config
 443      67000300 
 444              	.LVL40:
 445              	.L66:
 446              	.LCFI5:
 447              		.cfi_restore_state
  70:pwm.c         ****        timer_channel_output_pulse_value_config(TIMER1,TIMER_CH_3,(-throttel/100.0)*16000);
 448              		.loc 1 70 8 is_stmt 1
 449 0068 2A84     		mv	s0,a0
 450 006a 0146     		li	a2,0
 451 006c 8945     		li	a1,2
 452 006e 37050040 		li	a0,1073741824
 453              	.LVL41:
 454 0072 97000000 		call	timer_channel_output_pulse_value_config
 454      E7800000 
 455              	.LVL42:
  71:pwm.c         ****     }
 456              		.loc 1 71 8
  71:pwm.c         ****     }
 457              		.loc 1 71 76 is_stmt 0
 458 007a 33058040 		neg	a0,s0
 459 007e 97000000 		call	__floatsidf
 459      E7800000 
 460              	.LVL43:
 461 0086 B7070000 		lui	a5,%hi(.LC0)
 462 008a 03A60700 		lw	a2,%lo(.LC0)(a5)
 463 008e 83A64700 		lw	a3,%lo(.LC0+4)(a5)
 464 0092 97000000 		call	__divdf3
 464      E7800000 
 465              	.LVL44:
  71:pwm.c         ****     }
GAS LISTING C:\Users\elias\AppData\Local\Temp\ccIPN9Nl.s 			page 12


 466              		.loc 1 71 83
 467 009a B7070000 		lui	a5,%hi(.LC1)
 468 009e 03A60700 		lw	a2,%lo(.LC1)(a5)
 469 00a2 83A64700 		lw	a3,%lo(.LC1+4)(a5)
 470 00a6 97000000 		call	__muldf3
 470      E7800000 
 471              	.LVL45:
  71:pwm.c         ****     }
 472              		.loc 1 71 8
 473 00ae 97000000 		call	__fixunsdfsi
 473      E7800000 
 474              	.LVL46:
 475              		.loc 1 73 1
 476 00b6 2244     		lw	s0,8(sp)
 477              		.cfi_restore 8
 478              	.LVL47:
 479 00b8 B240     		lw	ra,12(sp)
 480              		.cfi_restore 1
  71:pwm.c         ****     }
 481              		.loc 1 71 8
 482 00ba 2A86     		mv	a2,a0
 483              		.loc 1 73 1
  71:pwm.c         ****     }
 484              		.loc 1 71 8
 485 00bc 8D45     		li	a1,3
 486 00be 37050040 		li	a0,1073741824
 487              		.loc 1 73 1
 488 00c2 4101     		addi	sp,sp,16
 489              	.LCFI6:
 490              		.cfi_def_cfa_offset 0
  71:pwm.c         ****     }
 491              		.loc 1 71 8
 492 00c4 17030000 		tail	timer_channel_output_pulse_value_config
 492      67000300 
 493              	.LVL48:
 494              		.cfi_endproc
 495              	.LFE4:
 497              		.section	.rodata.T1setPWMmotorB.cst8,"aM",@progbits,8
 498              		.align	3
 499              	.LC0:
 500 0000 00000000 		.word	0
 501 0004 00005940 		.word	1079574528
 502              	.LC1:
 503 0008 00000000 		.word	0
 504 000c 0040CF40 		.word	1087324160
 505              		.text
 506              	.Letext0:
 507              		.file 2 "c:\\users\\elias\\desktop\\fft\\projektet\\toolchain-gd32v-win\\compiler\\riscv64-unknown
 508              		.file 3 "c:\\users\\elias\\desktop\\fft\\projektet\\toolchain-gd32v-win\\compiler\\riscv64-unknown
 509              		.file 4 "../../firmware/GD32VF103_standard_peripheral/Include/gd32vf103_timer.h"
 510              		.file 5 "../../firmware/GD32VF103_standard_peripheral/Include/gd32vf103_rcu.h"
 511              		.file 6 "../../firmware/GD32VF103_standard_peripheral/Include/gd32vf103_gpio.h"
 512              		.file 7 "../../firmware/GD32VF103_standard_peripheral/system_gd32vf103.h"
GAS LISTING C:\Users\elias\AppData\Local\Temp\ccIPN9Nl.s 			page 13

